
output/AVRTestingDevice.elf:     file format elf32-avr

Sections:
Idx Name          Size      VMA       LMA       File off  Algn
  0 .text         000014d0  00000000  00000000  00000094  2**1
                  CONTENTS, ALLOC, LOAD, READONLY, CODE
  1 .data         0000001c  00800060  000014d0  00001564  2**0
                  CONTENTS, ALLOC, LOAD, DATA
  2 .bss          00000053  0080007c  0080007c  00001580  2**0
                  ALLOC
  3 .stab         00000d98  00000000  00000000  00001580  2**2
                  CONTENTS, READONLY, DEBUGGING
  4 .stabstr      00000258  00000000  00000000  00002318  2**0
                  CONTENTS, READONLY, DEBUGGING
  5 .debug_aranges 00000150  00000000  00000000  00002570  2**3
                  CONTENTS, READONLY, DEBUGGING
  6 .debug_pubnames 0000035c  00000000  00000000  000026c0  2**0
                  CONTENTS, READONLY, DEBUGGING
  7 .debug_info   00001cdd  00000000  00000000  00002a1c  2**0
                  CONTENTS, READONLY, DEBUGGING
  8 .debug_abbrev 00000bad  00000000  00000000  000046f9  2**0
                  CONTENTS, READONLY, DEBUGGING
  9 .debug_line   0000170a  00000000  00000000  000052a6  2**0
                  CONTENTS, READONLY, DEBUGGING
 10 .debug_frame  000001a0  00000000  00000000  000069b0  2**2
                  CONTENTS, READONLY, DEBUGGING
 11 .debug_str    000007a0  00000000  00000000  00006b50  2**0
                  CONTENTS, READONLY, DEBUGGING
 12 .debug_loc    00000c30  00000000  00000000  000072f0  2**0
                  CONTENTS, READONLY, DEBUGGING
 13 .debug_ranges 000001b8  00000000  00000000  00007f20  2**0
                  CONTENTS, READONLY, DEBUGGING

Disassembly of section .text:

00000000 <__vectors>:
}



void    usbEventResetReady(void)
{
       0:	e3 c0       	rjmp	.+454    	; 0x1c8 <__ctors_end>
       2:	2a c1       	rjmp	.+596    	; 0x258 <__vector_1>
       4:	fc c0       	rjmp	.+504    	; 0x1fe <__bad_interrupt>
       6:	fb c0       	rjmp	.+502    	; 0x1fe <__bad_interrupt>
       8:	fa c0       	rjmp	.+500    	; 0x1fe <__bad_interrupt>
       a:	f9 c0       	rjmp	.+498    	; 0x1fe <__bad_interrupt>
       c:	f8 c0       	rjmp	.+496    	; 0x1fe <__bad_interrupt>
       e:	f7 c0       	rjmp	.+494    	; 0x1fe <__bad_interrupt>
      10:	f6 c0       	rjmp	.+492    	; 0x1fe <__bad_interrupt>
      12:	f5 c0       	rjmp	.+490    	; 0x1fe <__bad_interrupt>
      14:	f4 c0       	rjmp	.+488    	; 0x1fe <__bad_interrupt>
      16:	f3 c0       	rjmp	.+486    	; 0x1fe <__bad_interrupt>
      18:	f2 c0       	rjmp	.+484    	; 0x1fe <__bad_interrupt>
      1a:	f1 c0       	rjmp	.+482    	; 0x1fe <__bad_interrupt>
      1c:	f0 c0       	rjmp	.+480    	; 0x1fe <__bad_interrupt>

0000001e <usbDescriptorHidReport>:
      1e:	05 01 09 06 a1 01 85 01 05 07 19 e0 29 e7 15 00     ............)...
      2e:	25 01 75 01 95 08 81 02 95 01 75 08 81 03 95 03     %.u.......u.....
      3e:	75 08 15 00 25 65 05 07 19 00 29 65 81 00 95 05     u...%e....)e....
      4e:	75 01 05 08 19 01 29 05 91 02 95 01 75 03 91 03     u.....).....u...
      5e:	c0 05 01 09 02 a1 01 09 01 a1 00 85 02 05 09 19     ................
      6e:	01 29 03 15 00 25 01 95 03 75 01 81 02 95 01 75     .)...%...u.....u
      7e:	05 81 03 05 01 09 30 09 31 09 38 15 81 25 7f 75     ......0.1.8..%.u
      8e:	08 95 03 81 06 c0 c0                                .......

00000095 <__c.2001>:
      95:	41 44 43 20 4d 6f 64 65 20 6f 66 66 00              ADC Mode off.

000000a2 <__c.1998>:
      a2:	41 44 43 20 4d 6f 64 65 20 6f 6e 00                 ADC Mode on.

000000ae <__c.1993>:
      ae:	2b 2d 2d 2d 2d 2d 2d 2d 2d 2d 2d 2d 2d 2d 2d 2d     +---------------
      be:	2d 2d 2d 2b 00                                      ---+.

000000c3 <__c.1991>:
      c3:	a6 20 28 32 29 20 55 53 42 20 4d 4f 75 73 65 20     . (2) USB MOuse 
      d3:	20 20 20 a6 00                                         ..

000000d8 <__c.1989>:
      d8:	a6 2d 2d 2d 2d 2d 2d 2d 2d 2d 2d 2d 2d 2d 2d 2d     .---------------
      e8:	2d 2d 2d a6 00                                      ---..

000000ed <__c.1987>:
      ed:	a6 20 28 31 29 20 55 53 42 20 4b 65 79 62 6f 61     . (1) USB Keyboa
      fd:	64 20 20 a6 00                                      d  ..

00000102 <__c.1985>:
     102:	a6 2d 2d 2d 2d 2d 2d 2d 2d 2d 2d 2d 2d 2d 2d 2d     .---------------
     112:	2d 2d 2d a6 00                                      ---..

00000117 <__c.1983>:
     117:	a6 20 20 20 48 65 6c 6c 6f 20 57 6f 72 6c 64 20     .   Hello World 
     127:	20 20 20 a6 00                                         ..

0000012c <__c.1981>:
     12c:	2b 2d 2d 2d 2d 2d 2d 2d 2d 2d 2d 2d 2d 2d 2d 2d     +---------------
     13c:	2d 2d 2d 2b 00                                      ---+.

00000141 <__c.1978>:
     141:	6e 6f 74 65 70 61 64 2e 65 78 65 00                 notepad.exe.

0000014d <usbDescriptorString0>:
     14d:	04 03 09 04                                         ....

00000151 <usbDescriptorStringVendor>:
     151:	1c 03 77 00 77 00 77 00 2e 00 54 00 2d 00 34 00     ..w.w.w...T.-.4.
     161:	32 00 64 00 2e 00 63 00 6f 00 6d 00                 2.d...c.o.m.

0000016d <usbDescriptorStringDevice>:
     16d:	26 03 55 00 53 00 42 00 20 00 54 00 65 00 73 00     &.U.S.B. .T.e.s.
     17d:	74 00 69 00 6e 00 67 00 20 00 44 00 65 00 76 00     t.i.n.g. .D.e.v.
     18d:	69 00 63 00 65 00                                   i.c.e.

00000193 <usbDescriptorDevice>:
     193:	12 01 10 01 00 00 00 08 4f 1b 02 00 00 01 01 02     ........O.......
     1a3:	00 01                                               ..

000001a5 <usbDescriptorConfiguration>:
     1a5:	09 02 22 00 01 01 00 80 64 09 04 00 00 01 03 00     ..".....d.......
     1b5:	00 00 09 21 01 01 00 01 22 77 00 07 05 81 03 08     ...!...."w......
     1c5:	00 0a 00                                            ...

000001c8 <__ctors_end>:
     1c8:	11 24       	eor	r1, r1
     1ca:	1f be       	out	0x3f, r1	; 63
     1cc:	cf e5       	ldi	r28, 0x5F	; 95
     1ce:	d2 e0       	ldi	r29, 0x02	; 2
     1d0:	de bf       	out	0x3e, r29	; 62
     1d2:	cd bf       	out	0x3d, r28	; 61

000001d4 <__do_copy_data>:
     1d4:	10 e0       	ldi	r17, 0x00	; 0
     1d6:	a0 e6       	ldi	r26, 0x60	; 96
     1d8:	b0 e0       	ldi	r27, 0x00	; 0
     1da:	e0 ed       	ldi	r30, 0xD0	; 208
     1dc:	f4 e1       	ldi	r31, 0x14	; 20
     1de:	02 c0       	rjmp	.+4      	; 0x1e4 <.do_copy_data_start>

000001e0 <.do_copy_data_loop>:
     1e0:	05 90       	lpm	r0, Z+
     1e2:	0d 92       	st	X+, r0

000001e4 <.do_copy_data_start>:
     1e4:	ac 37       	cpi	r26, 0x7C	; 124
     1e6:	b1 07       	cpc	r27, r17
     1e8:	d9 f7       	brne	.-10     	; 0x1e0 <.do_copy_data_loop>

000001ea <__do_clear_bss>:
     1ea:	10 e0       	ldi	r17, 0x00	; 0
     1ec:	ac e7       	ldi	r26, 0x7C	; 124
     1ee:	b0 e0       	ldi	r27, 0x00	; 0
     1f0:	01 c0       	rjmp	.+2      	; 0x1f4 <.do_clear_bss_start>

000001f2 <.do_clear_bss_loop>:
     1f2:	1d 92       	st	X+, r1

000001f4 <.do_clear_bss_start>:
     1f4:	af 3c       	cpi	r26, 0xCF	; 207
     1f6:	b1 07       	cpc	r27, r17
     1f8:	e1 f7       	brne	.-8      	; 0x1f2 <.do_clear_bss_loop>
     1fa:	9c d2       	rcall	.+1336   	; 0x734 <main>
     1fc:	39 c6       	rjmp	.+3186   	; 0xe70 <exit>

000001fe <__bad_interrupt>:
     1fe:	00 cf       	rjmp	.-512    	; 0x0 <__vectors>

00000200 <usbCrc16>:
;   poly    r20+r21
;   scratch r23
;   resCrc  r24+r25 / r16+r17
;   ptr     X / Z
usbCrc16:
    mov     ptrL, argPtrL
     200:	a8 2f       	mov	r26, r24
    mov     ptrH, argPtrH
     202:	b9 2f       	mov	r27, r25
    ldi     resCrcL, 0
     204:	80 e0       	ldi	r24, 0x00	; 0
    ldi     resCrcH, 0
     206:	90 e0       	ldi	r25, 0x00	; 0
    ldi     polyL, lo8(0xa001)
     208:	41 e0       	ldi	r20, 0x01	; 1
    ldi     polyH, hi8(0xa001)
     20a:	50 ea       	ldi	r21, 0xA0	; 160
    com     argLen      ; argLen = -argLen - 1: modified loop to ensure that carry is set
     20c:	60 95       	com	r22
    ldi     bitCnt, 0   ; loop counter with starnd condition = end condition
     20e:	30 e0       	ldi	r19, 0x00	; 0
    rjmp    usbCrcLoopEntry
     210:	09 c0       	rjmp	.+18     	; 0x224 <usbCrcLoopEntry>

00000212 <usbCrcByteLoop>:
usbCrcByteLoop:
    ld      byte, ptr+
     212:	2d 91       	ld	r18, X+
    eor     resCrcL, byte
     214:	82 27       	eor	r24, r18

00000216 <usbCrcBitLoop>:
usbCrcBitLoop:
    ror     resCrcH     ; carry is always set here (see brcs jumps to here)
     216:	97 95       	ror	r25
    ror     resCrcL
     218:	87 95       	ror	r24
    brcs    usbCrcNoXor
     21a:	10 f0       	brcs	.+4      	; 0x220 <usbCrcNoXor>
    eor     resCrcL, polyL
     21c:	84 27       	eor	r24, r20
    eor     resCrcH, polyH
     21e:	95 27       	eor	r25, r21

00000220 <usbCrcNoXor>:
usbCrcNoXor:
    subi    bitCnt, 224 ; (8 * 224) % 256 = 0; this loop iterates 8 times
     220:	30 5e       	subi	r19, 0xE0	; 224
    brcs    usbCrcBitLoop
     222:	c8 f3       	brcs	.-14     	; 0x216 <usbCrcBitLoop>

00000224 <usbCrcLoopEntry>:
usbCrcLoopEntry:
    subi    argLen, -1
     224:	6f 5f       	subi	r22, 0xFF	; 255
    brcs    usbCrcByteLoop
     226:	a8 f3       	brcs	.-22     	; 0x212 <usbCrcByteLoop>

00000228 <usbCrcReady>:
usbCrcReady:
    ret
     228:	08 95       	ret

0000022a <usbCrc16Append>:

#endif /* USB_USE_FAST_CRC */

; extern unsigned usbCrc16Append(unsigned char *data, unsigned char len);
usbCrc16Append:
    rcall   usbCrc16
     22a:	ea df       	rcall	.-44     	; 0x200 <usbCrc16>
    st      ptr+, resCrcL
     22c:	8d 93       	st	X+, r24
    st      ptr+, resCrcH
     22e:	9d 93       	st	X+, r25
    ret
     230:	08 95       	ret

00000232 <usbMeasureFrameLength>:

; extern unsigned usbMeasurePacketLength(void);
; returns time between two idle strobes in multiples of 7 CPU clocks
.global usbMeasureFrameLength
usbMeasureFrameLength:
    ldi     cntH, 6         ; wait ~ 10 ms for D- == 0
     232:	a6 e0       	ldi	r26, 0x06	; 6
    clr     cnt16L
     234:	88 27       	eor	r24, r24
    clr     cnt16H
     236:	99 27       	eor	r25, r25

00000238 <usbMFTime16>:
usbMFTime16:
    dec     cntH
     238:	aa 95       	dec	r26
    breq    usbMFTimeout
     23a:	69 f0       	breq	.+26     	; 0x256 <usbMFTimeout>

0000023c <usbMFWaitStrobe>:
usbMFWaitStrobe:            ; first wait for D- == 0 (idle strobe)
    sbiw    cnt16, 1        ;[0] [6]
     23c:	01 97       	sbiw	r24, 0x01	; 1
    breq    usbMFTime16     ;[2]
     23e:	e1 f3       	breq	.-8      	; 0x238 <usbMFTime16>
    sbic    USBIN, USBMINUS ;[3]
     240:	b0 99       	sbic	0x16, 0	; 22
    rjmp    usbMFWaitStrobe ;[4]
     242:	fc cf       	rjmp	.-8      	; 0x23c <usbMFWaitStrobe>

00000244 <usbMFWaitIdle>:
usbMFWaitIdle:              ; then wait until idle again
    sbis    USBIN, USBMINUS ;1 wait for D- == 1
     244:	b0 9b       	sbis	0x16, 0	; 22
    rjmp    usbMFWaitIdle   ;2
     246:	fe cf       	rjmp	.-4      	; 0x244 <usbMFWaitIdle>
    ldi     cnt16L, 1       ;1 represents cycles so far
     248:	81 e0       	ldi	r24, 0x01	; 1
    clr     cnt16H          ;1
     24a:	99 27       	eor	r25, r25

0000024c <usbMFWaitLoop>:
usbMFWaitLoop:
    in      cntH, USBIN     ;[0] [7]
     24c:	a6 b3       	in	r26, 0x16	; 22
    adiw    cnt16, 1        ;[1]
     24e:	01 96       	adiw	r24, 0x01	; 1
    breq    usbMFTimeout    ;[3]
     250:	11 f0       	breq	.+4      	; 0x256 <usbMFTimeout>
    andi    cntH, USBMASK   ;[4]
     252:	a5 70       	andi	r26, 0x05	; 5
    brne    usbMFWaitLoop   ;[5]
     254:	d9 f7       	brne	.-10     	; 0x24c <usbMFWaitLoop>

00000256 <usbMFTimeout>:
usbMFTimeout:
#if resL != cnt16L
    mov     resL, cnt16L
    mov     resH, cnt16H
#endif
    ret
     256:	08 95       	ret

00000258 <__vector_1>:
; when instruction starts


USB_INTR_VECTOR:
;order of registers pushed: YL, SREG [sofError], r0, YH, shift, x1, x2, x3, x4, cnt
    push    YL                  ;[-23] push only what is necessary to sync with edge ASAP
     258:	cf 93       	push	r28
    in      YL, SREG            ;[-21]
     25a:	cf b7       	in	r28, 0x3f	; 63
    push    YL                  ;[-20]
     25c:	cf 93       	push	r28

0000025e <waitForJ>:
;sync up with J to K edge during sync pattern -- use fastest possible loops
;The first part waits at most 1 bit long since we must be in sync pattern.
;YL is guarenteed to be < 0x80 because I flag is clear. When we jump to
;waitForJ, ensure that this prerequisite is met.
waitForJ:
    inc     YL
     25e:	c3 95       	inc	r28
    sbis    USBIN, USBMINUS
     260:	b0 9b       	sbis	0x16, 0	; 22
    brne    waitForJ        ; just make sure we have ANY timeout
     262:	e9 f7       	brne	.-6      	; 0x25e <waitForJ>

00000264 <waitForK>:
waitForK:
;The following code results in a sampling window of < 1/4 bit which meets the spec.
    sbis    USBIN, USBMINUS     ;[-15]
     264:	b0 9b       	sbis	0x16, 0	; 22
    rjmp    foundK              ;[-14]
     266:	0b c0       	rjmp	.+22     	; 0x27e <foundK>
    sbis    USBIN, USBMINUS
     268:	b0 9b       	sbis	0x16, 0	; 22
    rjmp    foundK
     26a:	09 c0       	rjmp	.+18     	; 0x27e <foundK>
    sbis    USBIN, USBMINUS
     26c:	b0 9b       	sbis	0x16, 0	; 22
    rjmp    foundK
     26e:	07 c0       	rjmp	.+14     	; 0x27e <foundK>
    sbis    USBIN, USBMINUS
     270:	b0 9b       	sbis	0x16, 0	; 22
    rjmp    foundK
     272:	05 c0       	rjmp	.+10     	; 0x27e <foundK>
    sbis    USBIN, USBMINUS
     274:	b0 9b       	sbis	0x16, 0	; 22
    rjmp    foundK
     276:	03 c0       	rjmp	.+6      	; 0x27e <foundK>
    sbis    USBIN, USBMINUS
     278:	b0 9b       	sbis	0x16, 0	; 22
    rjmp    foundK
     27a:	01 c0       	rjmp	.+2      	; 0x27e <foundK>
    sts     usbSofCount, YL
#endif  /* USB_COUNT_SOF */
#ifdef USB_SOF_HOOK
    USB_SOF_HOOK
#endif
    rjmp    sofError
     27c:	d5 c0       	rjmp	.+426    	; 0x428 <sofError>

0000027e <foundK>:
foundK:                         ;[-12]
;{3, 5} after falling D- edge, average delay: 4 cycles [we want 5 for center sampling]
;we have 1 bit time for setup purposes, then sample again. Numbers in brackets
;are cycles from center of first sync (double K) bit after the instruction
    push    r0                  ;[-12]
     27e:	0f 92       	push	r0
;   [---]                       ;[-11]
    push    YH                  ;[-10]
     280:	df 93       	push	r29
;   [---]                       ;[-9]
    lds     YL, usbInputBufOffset;[-8]
     282:	c0 91 ac 00 	lds	r28, 0x00AC
;   [---]                       ;[-7]
    clr     YH                  ;[-6]
     286:	dd 27       	eor	r29, r29
    subi    YL, lo8(-(usbRxBuf));[-5] [rx loop init]
     288:	cd 54       	subi	r28, 0x4D	; 77
    sbci    YH, hi8(-(usbRxBuf));[-4] [rx loop init]
     28a:	df 4f       	sbci	r29, 0xFF	; 255
    mov     r0, x2              ;[-3] [rx loop init]
     28c:	01 2e       	mov	r0, r17
    sbis    USBIN, USBMINUS     ;[-2] we want two bits K (sample 2 cycles too early)
     28e:	b0 9b       	sbis	0x16, 0	; 22
    rjmp    haveTwoBitsK        ;[-1]
     290:	03 c0       	rjmp	.+6      	; 0x298 <haveTwoBitsK>
    pop     YH                  ;[0] undo the pushes from before
     292:	df 91       	pop	r29
    pop     r0                  ;[2]
     294:	0f 90       	pop	r0
    rjmp    waitForK            ;[4] this was not the end of sync, retry
     296:	e6 cf       	rjmp	.-52     	; 0x264 <waitForK>

00000298 <haveTwoBitsK>:

;----------------------------------------------------------------------------
; push more registers and initialize values while we sample the first bits:
;----------------------------------------------------------------------------
haveTwoBitsK:               ;[1]
    push    shift           ;[1]
     298:	2f 93       	push	r18
    push    x1              ;[3]
     29a:	0f 93       	push	r16
    push    x2              ;[5]
     29c:	1f 93       	push	r17
    push    x3              ;[7]
     29e:	4f 93       	push	r20
    ldi     shift, 0xff     ;[9] [rx loop init]
     2a0:	2f ef       	ldi	r18, 0xFF	; 255
    ori     x3, 0xff        ;[10] [rx loop init] == ser x3, clear zero flag
     2a2:	4f 6f       	ori	r20, 0xFF	; 255

    in      x1, USBIN       ;[11] <-- sample bit 0
     2a4:	06 b3       	in	r16, 0x16	; 22
    bst     x1, USBMINUS    ;[12]
     2a6:	00 fb       	bst	r16, 0
    bld     shift, 0        ;[13]
     2a8:	20 f9       	bld	r18, 0
    push    x4              ;[14] == phase
     2aa:	5f 93       	push	r21
;   [---]                   ;[15]
    push    cnt             ;[16]
     2ac:	3f 93       	push	r19
;   [---]                   ;[17]
    ldi     phase, 0        ;[18] [rx loop init]
     2ae:	50 e0       	ldi	r21, 0x00	; 0
    ldi     cnt, USB_BUFSIZE;[19] [rx loop init]
     2b0:	3b e0       	ldi	r19, 0x0B	; 11
    rjmp    rxbit1          ;[20]
     2b2:	65 c0       	rjmp	.+202    	; 0x37e <rxbit1>

000002b4 <continueWithBit5>:
bit 7: jump, fixup bitstuff
; 87 [+ 2] cycles
------------------------------------------------------------------
*/
continueWithBit5:
    in      x2, USBIN       ;[055] <-- bit 5
     2b4:	16 b3       	in	r17, 0x16	; 22
    eor     r0, x2          ;[056]
     2b6:	01 26       	eor	r0, r17
    or      phase, r0       ;[057]
     2b8:	50 29       	or	r21, r0
    sbrc    phase, USBMINUS ;[058]
     2ba:	50 fd       	sbrc	r21, 0
    lpm                     ;[059] optional nop3; modifies r0
     2bc:	c8 95       	lpm
    in      phase, USBIN    ;[060] <-- phase
     2be:	56 b3       	in	r21, 0x16	; 22
    eor     x1, x2          ;[061]
     2c0:	01 27       	eor	r16, r17
    bst     x1, USBMINUS    ;[062]
     2c2:	00 fb       	bst	r16, 0
    bld     shift, 5        ;[063]
     2c4:	25 f9       	bld	r18, 5
    andi    shift, 0x3f     ;[064]
     2c6:	2f 73       	andi	r18, 0x3F	; 63
    in      x1, USBIN       ;[065] <-- bit 6
     2c8:	06 b3       	in	r16, 0x16	; 22
    breq    unstuff5        ;[066] *** unstuff escape
     2ca:	b1 f0       	breq	.+44     	; 0x2f8 <unstuff5>
    eor     phase, x1       ;[067]
     2cc:	50 27       	eor	r21, r16
    eor     x2, x1          ;[068]
     2ce:	10 27       	eor	r17, r16
    bst     x2, USBMINUS    ;[069]
     2d0:	10 fb       	bst	r17, 0
    bld     shift, 6        ;[070]
     2d2:	26 f9       	bld	r18, 6

000002d4 <didUnstuff6>:
didUnstuff6:                ;[   ]
    in      r0, USBIN       ;[071] <-- phase
     2d4:	06 b2       	in	r0, 0x16	; 22
    cpi     shift, 0x02     ;[072]
     2d6:	22 30       	cpi	r18, 0x02	; 2
    brlo    unstuff6        ;[073] *** unstuff escape
     2d8:	f0 f0       	brcs	.+60     	; 0x316 <unstuff6>

000002da <didUnstuff5>:
didUnstuff5:                ;[   ]
    nop2                    ;[074]
     2da:	00 c0       	rjmp	.+0      	; 0x2dc <didUnstuff5+0x2>
;   [---]                   ;[075]
    in      x2, USBIN       ;[076] <-- bit 7
     2dc:	16 b3       	in	r17, 0x16	; 22
    eor     x1, x2          ;[077]
     2de:	01 27       	eor	r16, r17
    bst     x1, USBMINUS    ;[078]
     2e0:	00 fb       	bst	r16, 0
    bld     shift, 7        ;[079]
     2e2:	27 f9       	bld	r18, 7

000002e4 <didUnstuff7>:
didUnstuff7:                ;[   ]
    eor     r0, x2          ;[080]
     2e4:	01 26       	eor	r0, r17
    or      phase, r0       ;[081]
     2e6:	50 29       	or	r21, r0
    in      r0, USBIN       ;[082] <-- phase
     2e8:	06 b2       	in	r0, 0x16	; 22
    cpi     shift, 0x04     ;[083]
     2ea:	24 30       	cpi	r18, 0x04	; 4
    brsh    rxLoop          ;[084]
     2ec:	e8 f5       	brcc	.+122    	; 0x368 <rxLoop>

000002ee <unstuff7>:
;   [---]                   ;[085]
unstuff7:                   ;[   ]
    andi    x3, ~0x80       ;[085]
     2ee:	4f 77       	andi	r20, 0x7F	; 127
    ori     shift, 0x80     ;[086]
     2f0:	20 68       	ori	r18, 0x80	; 128
    in      x2, USBIN       ;[087] <-- sample stuffed bit 7
     2f2:	16 b3       	in	r17, 0x16	; 22
    nop                     ;[088]
     2f4:	00 00       	nop
    rjmp    didUnstuff7     ;[089]
     2f6:	f6 cf       	rjmp	.-20     	; 0x2e4 <didUnstuff7>

000002f8 <unstuff5>:
;   [---]                   ;[090]
                            ;[080]

unstuff5:                   ;[067]
    eor     phase, x1       ;[068]
     2f8:	50 27       	eor	r21, r16
    andi    x3, ~0x20       ;[069]
     2fa:	4f 7d       	andi	r20, 0xDF	; 223
    ori     shift, 0x20     ;[070]
     2fc:	20 62       	ori	r18, 0x20	; 32
    in      r0, USBIN       ;[071] <-- phase
     2fe:	06 b2       	in	r0, 0x16	; 22
    mov     x2, x1          ;[072]
     300:	10 2f       	mov	r17, r16
    nop                     ;[073]
     302:	00 00       	nop
    nop2                    ;[074]
     304:	00 c0       	rjmp	.+0      	; 0x306 <unstuff5+0xe>
;   [---]                   ;[075]
    in      x1, USBIN       ;[076] <-- bit 6
     306:	06 b3       	in	r16, 0x16	; 22
    eor     r0, x1          ;[077]
     308:	00 26       	eor	r0, r16
    or      phase, r0       ;[078]
     30a:	50 29       	or	r21, r0
    eor     x2, x1          ;[079]
     30c:	10 27       	eor	r17, r16
    bst     x2, USBMINUS    ;[080]
     30e:	10 fb       	bst	r17, 0
    bld     shift, 6        ;[081] no need to check bitstuffing, we just had one
     310:	26 f9       	bld	r18, 6
    in      r0, USBIN       ;[082] <-- phase
     312:	06 b2       	in	r0, 0x16	; 22
    rjmp    didUnstuff5     ;[083]
     314:	e2 cf       	rjmp	.-60     	; 0x2da <didUnstuff5>

00000316 <unstuff6>:
;   [---]                   ;[084]
                            ;[074]

unstuff6:                   ;[074]
    andi    x3, ~0x40       ;[075]
     316:	4f 7b       	andi	r20, 0xBF	; 191
    in      x1, USBIN       ;[076] <-- bit 6 again
     318:	06 b3       	in	r16, 0x16	; 22
    ori     shift, 0x40     ;[077]
     31a:	20 64       	ori	r18, 0x40	; 64
    nop2                    ;[078]
     31c:	00 c0       	rjmp	.+0      	; 0x31e <unstuff6+0x8>
;   [---]                   ;[079]
    rjmp    didUnstuff6     ;[080]
     31e:	da cf       	rjmp	.-76     	; 0x2d4 <didUnstuff6>

00000320 <unstuff0>:
;   [---]                   ;[081]
                            ;[071]

unstuff0:                   ;[013]
    eor     r0, x2          ;[014]
     320:	01 26       	eor	r0, r17
    or      phase, r0       ;[015]
     322:	50 29       	or	r21, r0
    andi    x2, USBMASK     ;[016] check for SE0
     324:	15 70       	andi	r17, 0x05	; 5
    in      r0, USBIN       ;[017] <-- phase
     326:	06 b2       	in	r0, 0x16	; 22
    breq    didUnstuff0     ;[018] direct jump to se0 would be too long
     328:	69 f1       	breq	.+90     	; 0x384 <didUnstuff0>
    andi    x3, ~0x01       ;[019]
     32a:	4e 7f       	andi	r20, 0xFE	; 254
    ori     shift, 0x01     ;[020]
     32c:	21 60       	ori	r18, 0x01	; 1
    mov     x1, x2          ;[021] mov existing sample
     32e:	01 2f       	mov	r16, r17
    in      x2, USBIN       ;[022] <-- bit 1 again
     330:	16 b3       	in	r17, 0x16	; 22
    rjmp    didUnstuff0     ;[023]
     332:	28 c0       	rjmp	.+80     	; 0x384 <didUnstuff0>

00000334 <unstuff1>:
;   [---]                   ;[024]
                            ;[014]

unstuff1:                   ;[024]
    eor     r0, x1          ;[025]
     334:	00 26       	eor	r0, r16
    or      phase, r0       ;[026]
     336:	50 29       	or	r21, r0
    andi    x3, ~0x02       ;[027]
     338:	4d 7f       	andi	r20, 0xFD	; 253
    in      r0, USBIN       ;[028] <-- phase
     33a:	06 b2       	in	r0, 0x16	; 22
    ori     shift, 0x02     ;[029]
     33c:	22 60       	ori	r18, 0x02	; 2
    mov     x2, x1          ;[030]
     33e:	10 2f       	mov	r17, r16
    rjmp    didUnstuff1     ;[031]
     340:	29 c0       	rjmp	.+82     	; 0x394 <didUnstuff1>

00000342 <unstuff2>:
;   [---]                   ;[032]
                            ;[022]

unstuff2:                   ;[035]
    eor     r0, x2          ;[036]
     342:	01 26       	eor	r0, r17
    or      phase, r0       ;[037]
     344:	50 29       	or	r21, r0
    andi    x3, ~0x04       ;[038]
     346:	4b 7f       	andi	r20, 0xFB	; 251
    in      r0, USBIN       ;[039] <-- phase
     348:	06 b2       	in	r0, 0x16	; 22
    ori     shift, 0x04     ;[040]
     34a:	24 60       	ori	r18, 0x04	; 4
    mov     x1, x2          ;[041]
     34c:	01 2f       	mov	r16, r17
    rjmp    didUnstuff2     ;[042]
     34e:	2d c0       	rjmp	.+90     	; 0x3aa <didUnstuff2>

00000350 <unstuff3>:
;   [---]                   ;[043]
                            ;[033]

unstuff3:                   ;[043]
    in      x2, USBIN       ;[044] <-- bit 3 again
     350:	16 b3       	in	r17, 0x16	; 22
    eor     r0, x2          ;[045]
     352:	01 26       	eor	r0, r17
    or      phase, r0       ;[046]
     354:	50 29       	or	r21, r0
    andi    x3, ~0x08       ;[047]
     356:	47 7f       	andi	r20, 0xF7	; 247
    ori     shift, 0x08     ;[048]
     358:	28 60       	ori	r18, 0x08	; 8
    nop                     ;[049]
     35a:	00 00       	nop
    in      r0, USBIN       ;[050] <-- phase
     35c:	06 b2       	in	r0, 0x16	; 22
    rjmp    didUnstuff3     ;[051]
     35e:	2e c0       	rjmp	.+92     	; 0x3bc <didUnstuff3>

00000360 <unstuff4>:
;   [---]                   ;[052]
                            ;[042]

unstuff4:                   ;[053]
    andi    x3, ~0x10       ;[054]
     360:	4f 7e       	andi	r20, 0xEF	; 239
    in      x1, USBIN       ;[055] <-- bit 4 again
     362:	06 b3       	in	r16, 0x16	; 22
    ori     shift, 0x10     ;[056]
     364:	20 61       	ori	r18, 0x10	; 16
    rjmp    didUnstuff4     ;[057]
     366:	30 c0       	rjmp	.+96     	; 0x3c8 <didUnstuff4>

00000368 <rxLoop>:
;   [---]                   ;[058]
                            ;[048]

rxLoop:                     ;[085]
    eor     x3, shift       ;[086] reconstruct: x3 is 0 at bit locations we changed, 1 at others
     368:	42 27       	eor	r20, r18
    in      x1, USBIN       ;[000] <-- bit 0
     36a:	06 b3       	in	r16, 0x16	; 22
    st      y+, x3          ;[001]
     36c:	49 93       	st	Y+, r20
;   [---]                   ;[002]
    eor     r0, x1          ;[003]
     36e:	00 26       	eor	r0, r16
    or      phase, r0       ;[004]
     370:	50 29       	or	r21, r0
    eor     x2, x1          ;[005]
     372:	10 27       	eor	r17, r16
    in      r0, USBIN       ;[006] <-- phase
     374:	06 b2       	in	r0, 0x16	; 22
    ser     x3              ;[007]
     376:	4f ef       	ldi	r20, 0xFF	; 255
    bst     x2, USBMINUS    ;[008]
     378:	10 fb       	bst	r17, 0
    bld     shift, 0        ;[009]
     37a:	20 f9       	bld	r18, 0
    andi    shift, 0xf9     ;[010]
     37c:	29 7f       	andi	r18, 0xF9	; 249

0000037e <rxbit1>:
rxbit1:                     ;[   ]
    in      x2, USBIN       ;[011] <-- bit 1
     37e:	16 b3       	in	r17, 0x16	; 22
    breq    unstuff0        ;[012] *** unstuff escape
     380:	79 f2       	breq	.-98     	; 0x320 <unstuff0>
    andi    x2, USBMASK     ;[013] SE0 check for bit 1
     382:	15 70       	andi	r17, 0x05	; 5

00000384 <didUnstuff0>:
didUnstuff0:                ;[   ] Z only set if we detected SE0 in bitstuff
    breq    se0             ;[014]
     384:	59 f1       	breq	.+86     	; 0x3dc <se0>
    eor     r0, x2          ;[015]
     386:	01 26       	eor	r0, r17
    or      phase, r0       ;[016]
     388:	50 29       	or	r21, r0
    in      r0, USBIN       ;[017] <-- phase
     38a:	06 b2       	in	r0, 0x16	; 22
    eor     x1, x2          ;[018]
     38c:	01 27       	eor	r16, r17
    bst     x1, USBMINUS    ;[019]
     38e:	00 fb       	bst	r16, 0
    bld     shift, 1        ;[020]
     390:	21 f9       	bld	r18, 1
    andi    shift, 0xf3     ;[021]
     392:	23 7f       	andi	r18, 0xF3	; 243

00000394 <didUnstuff1>:
didUnstuff1:                ;[   ]
    in      x1, USBIN       ;[022] <-- bit 2
     394:	06 b3       	in	r16, 0x16	; 22
    breq    unstuff1        ;[023] *** unstuff escape
     396:	71 f2       	breq	.-100    	; 0x334 <unstuff1>
    eor     r0, x1          ;[024]
     398:	00 26       	eor	r0, r16
    or      phase, r0       ;[025]
     39a:	50 29       	or	r21, r0
    subi    cnt, 1          ;[026] overflow check
     39c:	31 50       	subi	r19, 0x01	; 1
    brcs    overflow        ;[027]
     39e:	d0 f0       	brcs	.+52     	; 0x3d4 <overflow>
    in      r0, USBIN       ;[028] <-- phase
     3a0:	06 b2       	in	r0, 0x16	; 22
    eor     x2, x1          ;[029]
     3a2:	10 27       	eor	r17, r16
    bst     x2, USBMINUS    ;[030]
     3a4:	10 fb       	bst	r17, 0
    bld     shift, 2        ;[031]
     3a6:	22 f9       	bld	r18, 2
    andi    shift, 0xe7     ;[032]
     3a8:	27 7e       	andi	r18, 0xE7	; 231

000003aa <didUnstuff2>:
didUnstuff2:                ;[   ]
    in      x2, USBIN       ;[033] <-- bit 3
     3aa:	16 b3       	in	r17, 0x16	; 22
    breq    unstuff2        ;[034] *** unstuff escape
     3ac:	51 f2       	breq	.-108    	; 0x342 <unstuff2>
    eor     r0, x2          ;[035]
     3ae:	01 26       	eor	r0, r17
    or      phase, r0       ;[036]
     3b0:	50 29       	or	r21, r0
    eor     x1, x2          ;[037]
     3b2:	01 27       	eor	r16, r17
    bst     x1, USBMINUS    ;[038]
     3b4:	00 fb       	bst	r16, 0
    in      r0, USBIN       ;[039] <-- phase
     3b6:	06 b2       	in	r0, 0x16	; 22
    bld     shift, 3        ;[040]
     3b8:	23 f9       	bld	r18, 3
    andi    shift, 0xcf     ;[041]
     3ba:	2f 7c       	andi	r18, 0xCF	; 207

000003bc <didUnstuff3>:
didUnstuff3:                ;[   ]
    breq    unstuff3        ;[042] *** unstuff escape
     3bc:	49 f2       	breq	.-110    	; 0x350 <unstuff3>
    nop                     ;[043]
     3be:	00 00       	nop
    in      x1, USBIN       ;[044] <-- bit 4
     3c0:	06 b3       	in	r16, 0x16	; 22
    eor     x2, x1          ;[045]
     3c2:	10 27       	eor	r17, r16
    bst     x2, USBMINUS    ;[046]
     3c4:	10 fb       	bst	r17, 0
    bld     shift, 4        ;[047]
     3c6:	24 f9       	bld	r18, 4

000003c8 <didUnstuff4>:
didUnstuff4:                ;[   ]
    eor     r0, x1          ;[048]
     3c8:	00 26       	eor	r0, r16
    or      phase, r0       ;[049]
     3ca:	50 29       	or	r21, r0
    in      r0, USBIN       ;[050] <-- phase
     3cc:	06 b2       	in	r0, 0x16	; 22
    andi    shift, 0x9f     ;[051]
     3ce:	2f 79       	andi	r18, 0x9F	; 159
    breq    unstuff4        ;[052] *** unstuff escape
     3d0:	39 f2       	breq	.-114    	; 0x360 <unstuff4>
    rjmp    continueWithBit5;[053]
     3d2:	70 cf       	rjmp	.-288    	; 0x2b4 <continueWithBit5>

000003d4 <overflow>:
*/

#define token   x1

overflow:
    ldi     x2, 1<<USB_INTR_PENDING_BIT
     3d4:	10 e4       	ldi	r17, 0x40	; 64
    USB_STORE_PENDING(x2)       ; clear any pending interrupts
     3d6:	1a bf       	out	0x3a, r17	; 58

000003d8 <ignorePacket>:
ignorePacket:
    clr     token
     3d8:	00 27       	eor	r16, r16
    rjmp    storeTokenAndReturn
     3da:	19 c0       	rjmp	.+50     	; 0x40e <handleSetupOrOut>

000003dc <se0>:
; Processing of received packet (numbers in brackets are cycles after center of SE0)
;----------------------------------------------------------------------------
;This is the only non-error exit point for the software receiver loop
;we don't check any CRCs here because there is no time left.
se0:
    subi    cnt, USB_BUFSIZE    ;[5]
     3dc:	3b 50       	subi	r19, 0x0B	; 11
    neg     cnt                 ;[6]
     3de:	31 95       	neg	r19
    sub     YL, cnt             ;[7]
     3e0:	c3 1b       	sub	r28, r19
    sbci    YH, 0               ;[8]
     3e2:	d0 40       	sbci	r29, 0x00	; 0
    ldi     x2, 1<<USB_INTR_PENDING_BIT ;[9]
     3e4:	10 e4       	ldi	r17, 0x40	; 64
    USB_STORE_PENDING(x2)       ;[10] clear pending intr and check flag later. SE0 should be over.
     3e6:	1a bf       	out	0x3a, r17	; 58
    ld      token, y            ;[11]
     3e8:	08 81       	ld	r16, Y
    cpi     token, USBPID_DATA0 ;[13]
     3ea:	03 3c       	cpi	r16, 0xC3	; 195
    breq    handleData          ;[14]
     3ec:	09 f1       	breq	.+66     	; 0x430 <handleData>
    cpi     token, USBPID_DATA1 ;[15]
     3ee:	0b 34       	cpi	r16, 0x4B	; 75
    breq    handleData          ;[16]
     3f0:	f9 f0       	breq	.+62     	; 0x430 <handleData>
    lds     shift, usbDeviceAddr;[17]
     3f2:	20 91 aa 00 	lds	r18, 0x00AA
    ldd     x2, y+1             ;[19] ADDR and 1 bit endpoint number
     3f6:	19 81       	ldd	r17, Y+1	; 0x01
    lsl     x2                  ;[21] shift out 1 bit endpoint number
     3f8:	11 0f       	add	r17, r17
    cpse    x2, shift           ;[22]
     3fa:	12 13       	cpse	r17, r18
    rjmp    ignorePacket        ;[23]
     3fc:	ed cf       	rjmp	.-38     	; 0x3d8 <ignorePacket>
/* only compute endpoint number in x3 if required later */
#if USB_CFG_HAVE_INTRIN_ENDPOINT || USB_CFG_IMPLEMENT_FN_WRITEOUT
    ldd     x3, y+2             ;[24] endpoint number + crc
     3fe:	4a 81       	ldd	r20, Y+2	; 0x02
    rol     x3                  ;[26] shift in LSB of endpoint
     400:	44 1f       	adc	r20, r20
#endif
    cpi     token, USBPID_IN    ;[27]
     402:	09 36       	cpi	r16, 0x69	; 105
    breq    handleIn            ;[28]
     404:	51 f1       	breq	.+84     	; 0x45a <handleIn>
    cpi     token, USBPID_SETUP ;[29]
     406:	0d 32       	cpi	r16, 0x2D	; 45
    breq    handleSetupOrOut    ;[30]
     408:	11 f0       	breq	.+4      	; 0x40e <handleSetupOrOut>
    cpi     token, USBPID_OUT   ;[31]
     40a:	01 3e       	cpi	r16, 0xE1	; 225
    brne    ignorePacket        ;[32] must be ack, nak or whatever
     40c:	29 f7       	brne	.-54     	; 0x3d8 <ignorePacket>

0000040e <handleSetupOrOut>:
    andi    x3, 0xf             ;[32]
    breq    storeTokenAndReturn ;[33]
    mov     token, x3           ;[34] indicate that this is endpoint x OUT
#endif
storeTokenAndReturn:
    sts     usbCurrentTok, token;[35]
     40e:	00 93 b1 00 	sts	0x00B1, r16

00000412 <doReturn>:
doReturn:
    POP_STANDARD                ;[37] 12...16 cycles
     412:	3f 91       	pop	r19
     414:	5f 91       	pop	r21
     416:	4f 91       	pop	r20
     418:	1f 91       	pop	r17
     41a:	0f 91       	pop	r16
     41c:	2f 91       	pop	r18
     41e:	df 91       	pop	r29
     420:	0f 90       	pop	r0
    USB_LOAD_PENDING(YL)        ;[49]
     422:	ca b7       	in	r28, 0x3a	; 58
    sbrc    YL, USB_INTR_PENDING_BIT;[50] check whether data is already arriving
     424:	c6 fd       	sbrc	r28, 6
    rjmp    waitForJ            ;[51] save the pops and pushes -- a new interrupt is already pending
     426:	1b cf       	rjmp	.-458    	; 0x25e <waitForJ>

00000428 <sofError>:
sofError:
    POP_RETI                    ;macro call
     428:	cf 91       	pop	r28
     42a:	cf bf       	out	0x3f, r28	; 63
     42c:	cf 91       	pop	r28
    reti
     42e:	18 95       	reti

00000430 <handleData>:

handleData:
#if USB_CFG_CHECK_CRC
    CRC_CLEANUP_AND_CHECK       ; jumps to ignorePacket if CRC error
#endif
    lds     shift, usbCurrentTok;[18]
     430:	20 91 b1 00 	lds	r18, 0x00B1
    tst     shift               ;[20]
     434:	22 23       	and	r18, r18
    breq    doReturn            ;[21]
     436:	69 f3       	breq	.-38     	; 0x412 <doReturn>
    lds     x2, usbRxLen        ;[22]
     438:	10 91 af 00 	lds	r17, 0x00AF
    tst     x2                  ;[24]
     43c:	11 23       	and	r17, r17
    brne    sendNakAndReti      ;[25]
     43e:	79 f5       	brne	.+94     	; 0x49e <sendNakAndReti>
; 2006-03-11: The following two lines fix a problem where the device was not
; recognized if usbPoll() was called less frequently than once every 4 ms.
    cpi     cnt, 4              ;[26] zero sized data packets are status phase only -- ignore and ack
     440:	34 30       	cpi	r19, 0x04	; 4
    brmi    sendAckAndReti      ;[27] keep rx buffer clean -- we must not NAK next SETUP
     442:	7a f1       	brmi	.+94     	; 0x4a2 <sendAckAndReti>
#if USB_CFG_CHECK_DATA_TOGGLING
    sts     usbCurrentDataToken, token  ; store for checking by C code
#endif
    sts     usbRxLen, cnt       ;[28] store received data, swap buffers
     444:	30 93 af 00 	sts	0x00AF, r19
    sts     usbRxToken, shift   ;[30]
     448:	20 93 ab 00 	sts	0x00AB, r18
    lds     x2, usbInputBufOffset;[32] swap buffers
     44c:	10 91 ac 00 	lds	r17, 0x00AC
    ldi     cnt, USB_BUFSIZE    ;[34]
     450:	3b e0       	ldi	r19, 0x0B	; 11
    sub     cnt, x2             ;[35]
     452:	31 1b       	sub	r19, r17
    sts     usbInputBufOffset, cnt;[36] buffers now swapped
     454:	30 93 ac 00 	sts	0x00AC, r19
    rjmp    sendAckAndReti      ;[38] 40 + 17 = 57 until SOP
     458:	24 c0       	rjmp	.+72     	; 0x4a2 <sendAckAndReti>

0000045a <handleIn>:

handleIn:
;We don't send any data as long as the C code has not processed the current
;input data and potentially updated the output data. That's more efficient
;in terms of code size than clearing the tx buffers when a packet is received.
    lds     x1, usbRxLen        ;[30]
     45a:	00 91 af 00 	lds	r16, 0x00AF
    cpi     x1, 1               ;[32] negative values are flow control, 0 means "buffer free"
     45e:	01 30       	cpi	r16, 0x01	; 1
    brge    sendNakAndReti      ;[33] unprocessed input packet?
     460:	f4 f4       	brge	.+60     	; 0x49e <sendNakAndReti>
    ldi     x1, USBPID_NAK      ;[34] prepare value for usbTxLen
     462:	0a e5       	ldi	r16, 0x5A	; 90
#if USB_CFG_HAVE_INTRIN_ENDPOINT
    andi    x3, 0xf             ;[35] x3 contains endpoint
     464:	4f 70       	andi	r20, 0x0F	; 15
#if USB_CFG_SUPPRESS_INTR_CODE
    brne    sendNakAndReti      ;[36]
#else
    brne    handleIn1           ;[36]
     466:	49 f4       	brne	.+18     	; 0x47a <handleIn1>
#endif
#endif
    lds     cnt, usbTxLen       ;[37]
     468:	30 91 7a 00 	lds	r19, 0x007A
    sbrc    cnt, 4              ;[39] all handshake tokens have bit 4 set
     46c:	34 fd       	sbrc	r19, 4
    rjmp    sendCntAndReti      ;[40] 42 + 16 = 58 until SOP
     46e:	1a c0       	rjmp	.+52     	; 0x4a4 <sendCntAndReti>
    sts     usbTxLen, x1        ;[41] x1 == USBPID_NAK from above
     470:	00 93 7a 00 	sts	0x007A, r16
    ldi     YL, lo8(usbTxBuf)   ;[43]
     474:	c3 e9       	ldi	r28, 0x93	; 147
    ldi     YH, hi8(usbTxBuf)   ;[44]
     476:	d0 e0       	ldi	r29, 0x00	; 0
    rjmp    usbSendAndReti      ;[45] 57 + 12 = 59 until SOP
     478:	19 c0       	rjmp	.+50     	; 0x4ac <usbSendAndReti>

0000047a <handleIn1>:
#if USB_CFG_HAVE_INTRIN_ENDPOINT3
; 2006-06-10 as suggested by O.Tamura: support second INTR IN / BULK IN endpoint
    cpi     x3, USB_CFG_EP3_NUMBER;[38]
    breq    handleIn3           ;[39]
#endif
    lds     cnt, usbTxLen1      ;[40]
     47a:	30 91 9e 00 	lds	r19, 0x009E
    sbrc    cnt, 4              ;[42] all handshake tokens have bit 4 set
     47e:	34 fd       	sbrc	r19, 4
    rjmp    sendCntAndReti      ;[43] 47 + 16 = 63 until SOP
     480:	11 c0       	rjmp	.+34     	; 0x4a4 <sendCntAndReti>
    sts     usbTxLen1, x1       ;[44] x1 == USBPID_NAK from above
     482:	00 93 9e 00 	sts	0x009E, r16
    ldi     YL, lo8(usbTxBuf1)  ;[46]
     486:	cf e9       	ldi	r28, 0x9F	; 159
    ldi     YH, hi8(usbTxBuf1)  ;[47]
     488:	d0 e0       	ldi	r29, 0x00	; 0
    rjmp    usbSendAndReti      ;[48] 50 + 12 = 62 until SOP
     48a:	10 c0       	rjmp	.+32     	; 0x4ac <usbSendAndReti>

0000048c <bitstuff7>:
; J = (D+ = 0), (D- = 1)
; K = (D+ = 1), (D- = 0)
; Spec allows 7.5 bit times from EOP to SOP for replies

bitstuff7:
    eor     x1, x4          ;[4]
     48c:	05 27       	eor	r16, r21
    ldi     x2, 0           ;[5]
     48e:	10 e0       	ldi	r17, 0x00	; 0
    nop2                    ;[6] C is zero (brcc)
     490:	00 c0       	rjmp	.+0      	; 0x492 <bitstuff7+0x6>
    rjmp    didStuff7       ;[8]
     492:	21 c0       	rjmp	.+66     	; 0x4d6 <didStuff7>

00000494 <bitstuffN>:

bitstuffN:
    eor     x1, x4          ;[5]
     494:	05 27       	eor	r16, r21
    ldi     x2, 0           ;[6]
     496:	10 e0       	ldi	r17, 0x00	; 0
    lpm                     ;[7] 3 cycle NOP, modifies r0
     498:	c8 95       	lpm
    out     USBOUT, x1      ;[10] <-- out
     49a:	08 bb       	out	0x18, r16	; 24
    rjmp    didStuffN       ;[0]
     49c:	14 c0       	rjmp	.+40     	; 0x4c6 <didStuffN>

0000049e <sendNakAndReti>:

#define bitStatus   x3

sendNakAndReti:
    ldi     cnt, USBPID_NAK ;[-19]
     49e:	3a e5       	ldi	r19, 0x5A	; 90
    rjmp    sendCntAndReti  ;[-18]
     4a0:	01 c0       	rjmp	.+2      	; 0x4a4 <sendCntAndReti>

000004a2 <sendAckAndReti>:
sendAckAndReti:
    ldi     cnt, USBPID_ACK ;[-17]
     4a2:	32 ed       	ldi	r19, 0xD2	; 210

000004a4 <sendCntAndReti>:
sendCntAndReti:
    mov     r0, cnt         ;[-16]
     4a4:	03 2e       	mov	r0, r19
    ldi     YL, 0           ;[-15] R0 address is 0
     4a6:	c0 e0       	ldi	r28, 0x00	; 0
    ldi     YH, 0           ;[-14]
     4a8:	d0 e0       	ldi	r29, 0x00	; 0
    ldi     cnt, 2          ;[-13]
     4aa:	32 e0       	ldi	r19, 0x02	; 2

000004ac <usbSendAndReti>:
;pointer to data in 'Y'
;number of bytes in 'cnt' -- including sync byte [range 2 ... 12]
;uses: x1...x4, shift, cnt, Y
;Numbers in brackets are time since first bit of sync pattern is sent
usbSendAndReti:             ; 12 cycles until SOP
    in      x2, USBDDR      ;[-12]
     4ac:	17 b3       	in	r17, 0x17	; 23
    ori     x2, USBMASK     ;[-11]
     4ae:	15 60       	ori	r17, 0x05	; 5
    sbi     USBOUT, USBMINUS;[-10] prepare idle state; D+ and D- must have been 0 (no pullups)
     4b0:	c0 9a       	sbi	0x18, 0	; 24
    in      x1, USBOUT      ;[-8] port mirror for tx loop
     4b2:	08 b3       	in	r16, 0x18	; 24
    out     USBDDR, x2      ;[-7] <- acquire bus
     4b4:	17 bb       	out	0x17, r17	; 23
; need not init x2 (bitstuff history) because sync starts with 0
    ldi     x4, USBMASK     ;[-6] exor mask
     4b6:	55 e0       	ldi	r21, 0x05	; 5
    ldi     shift, 0x80     ;[-5] sync byte is first byte sent
     4b8:	20 e8       	ldi	r18, 0x80	; 128
    ldi     bitStatus, 0xff ;[-4] init bit loop counter, works for up to 12 bytes
     4ba:	4f ef       	ldi	r20, 0xFF	; 255

000004bc <bitloop>:
byteloop:
bitloop:
    sbrs    shift, 0        ;[8] [-3]
     4bc:	20 ff       	sbrs	r18, 0
    eor     x1, x4          ;[9] [-2]
     4be:	05 27       	eor	r16, r21
    out     USBOUT, x1      ;[10] [-1] <-- out
     4c0:	08 bb       	out	0x18, r16	; 24
    ror     shift           ;[0]
     4c2:	27 95       	ror	r18
    ror     x2              ;[1]
     4c4:	17 95       	ror	r17

000004c6 <didStuffN>:
didStuffN:
    cpi     x2, 0xfc        ;[2]
     4c6:	1c 3f       	cpi	r17, 0xFC	; 252
    brcc    bitstuffN       ;[3]
     4c8:	28 f7       	brcc	.-54     	; 0x494 <bitstuffN>
    nop                     ;[4]
     4ca:	00 00       	nop
    subi    bitStatus, 37   ;[5] 256 / 7 ~=~ 37
     4cc:	45 52       	subi	r20, 0x25	; 37
    brcc    bitloop         ;[6] when we leave the loop, bitStatus has almost the initial value
     4ce:	b0 f7       	brcc	.-20     	; 0x4bc <bitloop>
    sbrs    shift, 0        ;[7]
     4d0:	20 ff       	sbrs	r18, 0
    eor     x1, x4          ;[8]
     4d2:	05 27       	eor	r16, r21
    ror     shift           ;[9]
     4d4:	27 95       	ror	r18

000004d6 <didStuff7>:
didStuff7:
    out     USBOUT, x1      ;[10] <-- out
     4d6:	08 bb       	out	0x18, r16	; 24
    ror     x2              ;[0]
     4d8:	17 95       	ror	r17
    cpi     x2, 0xfc        ;[1]
     4da:	1c 3f       	cpi	r17, 0xFC	; 252
    brcc    bitstuff7       ;[2]
     4dc:	b8 f6       	brcc	.-82     	; 0x48c <bitstuff7>
    ld      shift, y+       ;[3]
     4de:	29 91       	ld	r18, Y+
    dec     cnt             ;[5]
     4e0:	3a 95       	dec	r19
    brne    byteloop        ;[6]
     4e2:	61 f7       	brne	.-40     	; 0x4bc <bitloop>
;make SE0:
    cbr     x1, USBMASK     ;[7] prepare SE0 [spec says EOP may be 21 to 25 cycles]
     4e4:	0a 7f       	andi	r16, 0xFA	; 250
    lds     x2, usbNewDeviceAddr;[8]
     4e6:	10 91 b0 00 	lds	r17, 0x00B0
    lsl     x2              ;[10] we compare with left shifted address
     4ea:	11 0f       	add	r17, r17
    out     USBOUT, x1      ;[11] <-- out SE0 -- from now 2 bits = 22 cycles until bus idle
     4ec:	08 bb       	out	0x18, r16	; 24
;2006-03-06: moved transfer of new address to usbDeviceAddr from C-Code to asm:
;set address only after data packet was sent, not after handshake
    subi    YL, 2           ;[0] Only assign address on data packets, not ACK/NAK in r0
     4ee:	c2 50       	subi	r28, 0x02	; 2
    sbci    YH, 0           ;[1]
     4f0:	d0 40       	sbci	r29, 0x00	; 0
    breq    skipAddrAssign  ;[2]
     4f2:	11 f0       	breq	.+4      	; 0x4f8 <skipAddrAssign>
    sts     usbDeviceAddr, x2; if not skipped: SE0 is one cycle longer
     4f4:	10 93 aa 00 	sts	0x00AA, r17

000004f8 <skipAddrAssign>:
skipAddrAssign:
;end of usbDeviceAddress transfer
    ldi     x2, 1<<USB_INTR_PENDING_BIT;[4] int0 occurred during TX -- clear pending flag
     4f8:	10 e4       	ldi	r17, 0x40	; 64
    USB_STORE_PENDING(x2)   ;[5]
     4fa:	1a bf       	out	0x3a, r17	; 58
    ori     x1, USBIDLE     ;[6]
     4fc:	01 60       	ori	r16, 0x01	; 1
    in      x2, USBDDR      ;[7]
     4fe:	17 b3       	in	r17, 0x17	; 23
    cbr     x2, USBMASK     ;[8] set both pins to input
     500:	1a 7f       	andi	r17, 0xFA	; 250
    mov     x3, x1          ;[9]
     502:	40 2f       	mov	r20, r16
    cbr     x3, USBMASK     ;[10] configure no pullup on both pins
     504:	4a 7f       	andi	r20, 0xFA	; 250
    ldi     x4, 4           ;[11]
     506:	54 e0       	ldi	r21, 0x04	; 4

00000508 <se0Delay>:
se0Delay:
    dec     x4              ;[12] [15] [18] [21]
     508:	5a 95       	dec	r21
    brne    se0Delay        ;[13] [16] [19] [22]
     50a:	f1 f7       	brne	.-4      	; 0x508 <se0Delay>
    out     USBOUT, x1      ;[23] <-- out J (idle) -- end of SE0 (EOP signal)
     50c:	08 bb       	out	0x18, r16	; 24
    out     USBDDR, x2      ;[24] <-- release bus now
     50e:	17 bb       	out	0x17, r17	; 23
    out     USBOUT, x3      ;[25] <-- ensure no pull-up resistors are active
     510:	48 bb       	out	0x18, r20	; 24
    rjmp    doReturn
     512:	7f cf       	rjmp	.-258    	; 0x412 <doReturn>

00000514 <usbFunctionSetup>:
//-----------------------USB--------------------------//
//----------------------------------------------------//
usbMsgLen_t usbFunctionSetup(uint8_t data[8])
{
	// see HID1_11.pdf sect 7.2 and http://vusb.wikidot.com/driver-api
	usbRequest_t *rq = (void *)data;
     514:	fc 01       	movw	r30, r24

	if ((rq->bmRequestType & USBRQ_TYPE_MASK) != USBRQ_TYPE_CLASS)
     516:	80 81       	ld	r24, Z
     518:	80 76       	andi	r24, 0x60	; 96
     51a:	80 32       	cpi	r24, 0x20	; 32
     51c:	09 f0       	breq	.+2      	; 0x520 <usbFunctionSetup+0xc>
     51e:	3f c0       	rjmp	.+126    	; 0x59e <usbFunctionSetup+0x8a>
		return 0; // ignore request if it's not a class specific request

	// see HID1_11.pdf sect 7.2
	switch (rq->bRequest)
     520:	81 81       	ldd	r24, Z+1	; 0x01
     522:	83 30       	cpi	r24, 0x03	; 3
     524:	a9 f0       	breq	.+42     	; 0x550 <usbFunctionSetup+0x3c>
     526:	84 30       	cpi	r24, 0x04	; 4
     528:	28 f4       	brcc	.+10     	; 0x534 <usbFunctionSetup+0x20>
     52a:	81 30       	cpi	r24, 0x01	; 1
     52c:	f1 f0       	breq	.+60     	; 0x56a <usbFunctionSetup+0x56>
     52e:	82 30       	cpi	r24, 0x02	; 2
     530:	b1 f5       	brne	.+108    	; 0x59e <usbFunctionSetup+0x8a>
     532:	07 c0       	rjmp	.+14     	; 0x542 <usbFunctionSetup+0x2e>
     534:	8a 30       	cpi	r24, 0x0A	; 10
     536:	41 f0       	breq	.+16     	; 0x548 <usbFunctionSetup+0x34>
     538:	8b 30       	cpi	r24, 0x0B	; 11
     53a:	91 f0       	breq	.+36     	; 0x560 <usbFunctionSetup+0x4c>
     53c:	89 30       	cpi	r24, 0x09	; 9
     53e:	79 f5       	brne	.+94     	; 0x59e <usbFunctionSetup+0x8a>
     540:	29 c0       	rjmp	.+82     	; 0x594 <usbFunctionSetup+0x80>
	{
		case USBRQ_HID_GET_IDLE:
			usbMsgPtr = &idle_rate; // send data starting from this byte
     542:	89 e7       	ldi	r24, 0x79	; 121
     544:	90 e0       	ldi	r25, 0x00	; 0
     546:	06 c0       	rjmp	.+12     	; 0x554 <usbFunctionSetup+0x40>
			return 1; // send 1 byte
		case USBRQ_HID_SET_IDLE:
			idle_rate = rq->wValue.bytes[1]; // read in idle rate
     548:	83 81       	ldd	r24, Z+3	; 0x03
     54a:	80 93 79 00 	sts	0x0079, r24
     54e:	0b c0       	rjmp	.+22     	; 0x566 <usbFunctionSetup+0x52>
			return 0; // send nothing
		case USBRQ_HID_GET_PROTOCOL:
			usbMsgPtr = &protocol_version; // send data starting from this byte
     550:	80 e8       	ldi	r24, 0x80	; 128
     552:	90 e0       	ldi	r25, 0x00	; 0
     554:	90 93 ae 00 	sts	0x00AE, r25
     558:	80 93 ad 00 	sts	0x00AD, r24
     55c:	81 e0       	ldi	r24, 0x01	; 1
     55e:	08 95       	ret
			return 1; // send 1 byte
		case USBRQ_HID_SET_PROTOCOL:
			protocol_version = rq->wValue.bytes[1];
     560:	83 81       	ldd	r24, Z+3	; 0x03
     562:	80 93 80 00 	sts	0x0080, r24
     566:	80 e0       	ldi	r24, 0x00	; 0
     568:	08 95       	ret
			return 0; // send nothing
		case USBRQ_HID_GET_REPORT:
			// check for report ID then send back report
			if (rq->wValue.bytes[0] == 1)
     56a:	82 81       	ldd	r24, Z+2	; 0x02
     56c:	81 30       	cpi	r24, 0x01	; 1
     56e:	41 f4       	brne	.+16     	; 0x580 <usbFunctionSetup+0x6c>
			{
				usbMsgPtr = &keyboard_report;
     570:	81 e8       	ldi	r24, 0x81	; 129
     572:	90 e0       	ldi	r25, 0x00	; 0
     574:	90 93 ae 00 	sts	0x00AE, r25
     578:	80 93 ad 00 	sts	0x00AD, r24
     57c:	86 e0       	ldi	r24, 0x06	; 6
     57e:	08 95       	ret
				return sizeof(keyboard_report);
			}
			else if (rq->wValue.bytes[0] == 2)
     580:	82 30       	cpi	r24, 0x02	; 2
     582:	69 f4       	brne	.+26     	; 0x59e <usbFunctionSetup+0x8a>
			{
				usbMsgPtr = &mouse_report;
     584:	87 e8       	ldi	r24, 0x87	; 135
     586:	90 e0       	ldi	r25, 0x00	; 0
     588:	90 93 ae 00 	sts	0x00AE, r25
     58c:	80 93 ad 00 	sts	0x00AD, r24
     590:	85 e0       	ldi	r24, 0x05	; 5
     592:	08 95       	ret
			else
			{
				return 0; // no such report, send nothing
			}
		case USBRQ_HID_SET_REPORT: // no "output" or "feature" implemented, so ignore
		if (rq->wValue.bytes[0] == 1){
     594:	82 81       	ldd	r24, Z+2	; 0x02
     596:	81 30       	cpi	r24, 0x01	; 1
     598:	11 f4       	brne	.+4      	; 0x59e <usbFunctionSetup+0x8a>
     59a:	8f ef       	ldi	r24, 0xFF	; 255
     59c:	08 95       	ret
     59e:	80 e0       	ldi	r24, 0x00	; 0
			return 0; // send nothing
			}
		default: // do not understand data, ignore
			return 0; // send nothing
	}
}
     5a0:	08 95       	ret

000005a2 <usbFunctionWrite>:
int blink_count = 0; // keep track of how many times caps lock have toggled

usbMsgLen_t usbFunctionWrite(uint8_t * data, uchar len)
{	 		

	if (data[1] != LED_state)
     5a2:	fc 01       	movw	r30, r24
     5a4:	91 81       	ldd	r25, Z+1	; 0x01
     5a6:	80 91 7f 00 	lds	r24, 0x007F
     5aa:	98 17       	cp	r25, r24
     5ac:	91 f0       	breq	.+36     	; 0x5d2 <usbFunctionWrite+0x30>
	{
		// increment count when LED has toggled
		
		LED_state = data[1];
     5ae:	90 93 7f 00 	sts	0x007F, r25
		
		
		if (bit_is_set(LED_state, 1))
     5b2:	80 91 7f 00 	lds	r24, 0x007F
     5b6:	81 ff       	sbrs	r24, 1
     5b8:	0b c0       	rjmp	.+22     	; 0x5d0 <usbFunctionWrite+0x2e>
		{
			sbi(PORTB, YELLOW_LED);
     5ba:	c1 9a       	sbi	0x18, 1	; 24
			blink_count++;
     5bc:	80 91 7c 00 	lds	r24, 0x007C
     5c0:	90 91 7d 00 	lds	r25, 0x007D
     5c4:	01 96       	adiw	r24, 0x01	; 1
     5c6:	90 93 7d 00 	sts	0x007D, r25
     5ca:	80 93 7c 00 	sts	0x007C, r24
     5ce:	01 c0       	rjmp	.+2      	; 0x5d2 <usbFunctionWrite+0x30>
		}
		else
		{
			cbi(PORTB, YELLOW_LED);
     5d0:	c1 98       	cbi	0x18, 1	; 24
		}
	}
	return 1;             // return 1 if we have all data
}
     5d2:	81 e0       	ldi	r24, 0x01	; 1
     5d4:	08 95       	ret

000005d6 <usbFunctionRead>:


usbMsgLen_t usbFunctionRead(uint8_t * data, uchar len)
{	 		
	return 1;             // return 1 if we have all data
}
     5d6:	81 e0       	ldi	r24, 0x01	; 1
     5d8:	08 95       	ret

000005da <inputPoll>:
//----------------------------------------------------//
int clockstate;

void inputPoll()
{
	if (clockstate != clock)
     5da:	86 b3       	in	r24, 0x16	; 22
     5dc:	90 e0       	ldi	r25, 0x00	; 0
     5de:	80 71       	andi	r24, 0x10	; 16
     5e0:	90 70       	andi	r25, 0x00	; 0
     5e2:	20 91 8f 00 	lds	r18, 0x008F
     5e6:	30 91 90 00 	lds	r19, 0x0090
     5ea:	28 17       	cp	r18, r24
     5ec:	39 07       	cpc	r19, r25
     5ee:	b1 f0       	breq	.+44     	; 0x61c <inputPoll+0x42>
	{
		clockstate = clock;
     5f0:	86 b3       	in	r24, 0x16	; 22
     5f2:	90 e0       	ldi	r25, 0x00	; 0
     5f4:	80 71       	andi	r24, 0x10	; 16
     5f6:	90 70       	andi	r25, 0x00	; 0
     5f8:	90 93 90 00 	sts	0x0090, r25
     5fc:	80 93 8f 00 	sts	0x008F, r24
		if (!clock){
     600:	b4 99       	sbic	0x16, 4	; 22
     602:	0b c0       	rjmp	.+22     	; 0x61a <inputPoll+0x40>
			sbi(PORTB, YELLOW_LED);
     604:	c1 9a       	sbi	0x18, 1	; 24
			blink_count++;
     606:	80 91 7c 00 	lds	r24, 0x007C
     60a:	90 91 7d 00 	lds	r25, 0x007D
     60e:	01 96       	adiw	r24, 0x01	; 1
     610:	90 93 7d 00 	sts	0x007D, r25
     614:	80 93 7c 00 	sts	0x007C, r24
     618:	08 95       	ret
		}
		else
		{
			cbi(PORTB, YELLOW_LED);
     61a:	c1 98       	cbi	0x18, 1	; 24
     61c:	08 95       	ret

0000061e <usbSendHidReport>:
    eeprom_write_byte(0, OSCCAL);   /* store the calibrated value in EEPROM */
}

// this function is used to guarantee that the data is sent to the computer once
void usbSendHidReport(uchar * data, uchar len)
{
     61e:	1f 93       	push	r17
     620:	cf 93       	push	r28
     622:	df 93       	push	r29
     624:	ec 01       	movw	r28, r24
     626:	16 2f       	mov	r17, r22
	while(1)
	{
		usbPoll();
     628:	ef d2       	rcall	.+1502   	; 0xc08 <usbPoll>
		if (usbInterruptIsReady())
     62a:	80 91 9e 00 	lds	r24, 0x009E
     62e:	84 ff       	sbrs	r24, 4
     630:	fb cf       	rjmp	.-10     	; 0x628 <usbSendHidReport+0xa>
		{
			usbSetInterrupt(data, len);
     632:	ce 01       	movw	r24, r28
     634:	61 2f       	mov	r22, r17
     636:	c7 d2       	rcall	.+1422   	; 0xbc6 <usbSetInterrupt>
			break;
		}
	}
}
     638:	df 91       	pop	r29
     63a:	cf 91       	pop	r28
     63c:	1f 91       	pop	r17
     63e:	08 95       	ret

00000640 <mouse_report_once>:
//----------------------------------------------------//


void mouse_report_once()
{
	usbPoll();
     640:	e3 d2       	rcall	.+1478   	; 0xc08 <usbPoll>
  	usbSendHidReport(&mouse_report, sizeof(mouse_report));
     642:	87 e8       	ldi	r24, 0x87	; 135
     644:	90 e0       	ldi	r25, 0x00	; 0
     646:	65 e0       	ldi	r22, 0x05	; 5
     648:	ea df       	rcall	.-44     	; 0x61e <usbSendHidReport>
}
     64a:	08 95       	ret

0000064c <mouse_move>:

void mouse_move(int8_t x,int8_t y,uint8_t speed ){
     64c:	ef 92       	push	r14
     64e:	ff 92       	push	r15
     650:	0f 93       	push	r16
     652:	1f 93       	push	r17
     654:	cf 93       	push	r28
     656:	df 93       	push	r29
     658:	e6 2e       	mov	r14, r22
     65a:	f4 2e       	mov	r15, r20
	int i;
  
	if (x>0){
     65c:	18 16       	cp	r1, r24
     65e:	7c f4       	brge	.+30     	; 0x67e <mouse_move+0x32>
     660:	c0 e0       	ldi	r28, 0x00	; 0
     662:	d0 e0       	ldi	r29, 0x00	; 0
    for(i=0;i<x;i++){  /* 300 ms disconnect */
     664:	08 2f       	mov	r16, r24
     666:	11 27       	eor	r17, r17
     668:	07 fd       	sbrc	r16, 7
     66a:	10 95       	com	r17
     66c:	04 c0       	rjmp	.+8      	; 0x676 <mouse_move+0x2a>
        mouse_report.x=speed;
     66e:	f0 92 89 00 	sts	0x0089, r15
        mouse_report_once();
     672:	e6 df       	rcall	.-52     	; 0x640 <mouse_report_once>

void mouse_move(int8_t x,int8_t y,uint8_t speed ){
	int i;
  
	if (x>0){
    for(i=0;i<x;i++){  /* 300 ms disconnect */
     674:	21 96       	adiw	r28, 0x01	; 1
     676:	c0 17       	cp	r28, r16
     678:	d1 07       	cpc	r29, r17
     67a:	cc f3       	brlt	.-14     	; 0x66e <mouse_move+0x22>
     67c:	0d c0       	rjmp	.+26     	; 0x698 <mouse_move+0x4c>
        mouse_report_once();
    }
   }
   else
   {
      for(i=x;i<0;i++){  /* 300 ms disconnect */
     67e:	c8 2f       	mov	r28, r24
     680:	dd 27       	eor	r29, r29
     682:	c7 fd       	sbrc	r28, 7
     684:	d0 95       	com	r29
        mouse_report.x=(-1*speed);
     686:	14 2f       	mov	r17, r20
     688:	11 95       	neg	r17
     68a:	04 c0       	rjmp	.+8      	; 0x694 <mouse_move+0x48>
     68c:	10 93 89 00 	sts	0x0089, r17
        mouse_report_once();
     690:	d7 df       	rcall	.-82     	; 0x640 <mouse_report_once>
        mouse_report_once();
    }
   }
   else
   {
      for(i=x;i<0;i++){  /* 300 ms disconnect */
     692:	21 96       	adiw	r28, 0x01	; 1
     694:	20 97       	sbiw	r28, 0x00	; 0
     696:	d1 f7       	brne	.-12     	; 0x68c <mouse_move+0x40>
        mouse_report.x=(-1*speed);
        mouse_report_once();
      }
   }
   if (y>0){
     698:	1e 14       	cp	r1, r14
     69a:	7c f4       	brge	.+30     	; 0x6ba <mouse_move+0x6e>
     69c:	c0 e0       	ldi	r28, 0x00	; 0
     69e:	d0 e0       	ldi	r29, 0x00	; 0
    for(i=0;i<y;i++){  /* 300 ms disconnect */
     6a0:	0e 2d       	mov	r16, r14
     6a2:	11 27       	eor	r17, r17
     6a4:	07 fd       	sbrc	r16, 7
     6a6:	10 95       	com	r17
     6a8:	04 c0       	rjmp	.+8      	; 0x6b2 <mouse_move+0x66>
        mouse_report.y=speed;
     6aa:	f0 92 8a 00 	sts	0x008A, r15
        mouse_report_once();
     6ae:	c8 df       	rcall	.-112    	; 0x640 <mouse_report_once>
        mouse_report.x=(-1*speed);
        mouse_report_once();
      }
   }
   if (y>0){
    for(i=0;i<y;i++){  /* 300 ms disconnect */
     6b0:	21 96       	adiw	r28, 0x01	; 1
     6b2:	c0 17       	cp	r28, r16
     6b4:	d1 07       	cpc	r29, r17
     6b6:	cc f3       	brlt	.-14     	; 0x6aa <mouse_move+0x5e>
     6b8:	0d c0       	rjmp	.+26     	; 0x6d4 <mouse_move+0x88>
        mouse_report_once();
    }
   }
   else
   {
      for(i=y;i<0;i++){  /* 300 ms disconnect */
     6ba:	ce 2d       	mov	r28, r14
     6bc:	dd 27       	eor	r29, r29
     6be:	c7 fd       	sbrc	r28, 7
     6c0:	d0 95       	com	r29
        mouse_report.y=(-1*speed);
     6c2:	1f 2d       	mov	r17, r15
     6c4:	11 95       	neg	r17
     6c6:	04 c0       	rjmp	.+8      	; 0x6d0 <mouse_move+0x84>
     6c8:	10 93 8a 00 	sts	0x008A, r17
        mouse_report_once();
     6cc:	b9 df       	rcall	.-142    	; 0x640 <mouse_report_once>
        mouse_report_once();
    }
   }
   else
   {
      for(i=y;i<0;i++){  /* 300 ms disconnect */
     6ce:	21 96       	adiw	r28, 0x01	; 1
     6d0:	20 97       	sbiw	r28, 0x00	; 0
     6d2:	d1 f7       	brne	.-12     	; 0x6c8 <mouse_move+0x7c>
        mouse_report_once();
      }
   }
   
	
	mouse_report_reset();
     6d4:	82 e0       	ldi	r24, 0x02	; 2
     6d6:	80 93 87 00 	sts	0x0087, r24
     6da:	10 92 88 00 	sts	0x0088, r1
     6de:	10 92 89 00 	sts	0x0089, r1
     6e2:	10 92 8a 00 	sts	0x008A, r1
     6e6:	10 92 8b 00 	sts	0x008B, r1
	mouse_report_once();
     6ea:	aa df       	rcall	.-172    	; 0x640 <mouse_report_once>
}
     6ec:	df 91       	pop	r29
     6ee:	cf 91       	pop	r28
     6f0:	1f 91       	pop	r17
     6f2:	0f 91       	pop	r16
     6f4:	ff 90       	pop	r15
     6f6:	ef 90       	pop	r14
     6f8:	08 95       	ret

000006fa <send_report_once>:
//----------------------------------------------------//
//----------------------------------------------------//

void send_report_once()
{
  usbSendHidReport(&keyboard_report, sizeof(keyboard_report));
     6fa:	81 e8       	ldi	r24, 0x81	; 129
     6fc:	90 e0       	ldi	r25, 0x00	; 0
     6fe:	66 e0       	ldi	r22, 0x06	; 6
     700:	8e df       	rcall	.-228    	; 0x61e <usbSendHidReport>
}
     702:	08 95       	ret

00000704 <addDigit>:

static void addDigit(uchar key,uchar mod)
{
     704:	1f 93       	push	r17
	keyboard_report.report_id=1;
     706:	11 e0       	ldi	r17, 0x01	; 1
     708:	10 93 81 00 	sts	0x0081, r17
    keyboard_report.keycode[0] =  key;
     70c:	80 93 84 00 	sts	0x0084, r24
	keyboard_report.modifier = mod;
     710:	60 93 82 00 	sts	0x0082, r22
	send_report_once();
     714:	f2 df       	rcall	.-28     	; 0x6fa <send_report_once>
	keyboard_report_reset(); // release keys
     716:	10 93 81 00 	sts	0x0081, r17
     71a:	10 92 82 00 	sts	0x0082, r1
     71e:	10 92 83 00 	sts	0x0083, r1
     722:	10 92 84 00 	sts	0x0084, r1
     726:	10 92 85 00 	sts	0x0085, r1
     72a:	10 92 86 00 	sts	0x0086, r1
	send_report_once();
     72e:	e5 df       	rcall	.-54     	; 0x6fa <send_report_once>
}
     730:	1f 91       	pop	r17
     732:	08 95       	ret

00000734 <main>:
{
	ASCII_to_keycode(ascii);
}
static FILE mystdout = FDEV_SETUP_STREAM(type_out_char, NULL, _FDEV_SETUP_WRITE); // setup writing stream
int main()
{
     734:	ff 92       	push	r15
     736:	0f 93       	push	r16
     738:	1f 93       	push	r17
     73a:	cf 93       	push	r28
     73c:	df 93       	push	r29
int i;
	wdt_disable(); // no watchdog, just because I'm lazy
     73e:	88 e1       	ldi	r24, 0x18	; 24
     740:	0f b6       	in	r0, 0x3f	; 63
     742:	f8 94       	cli
     744:	81 bd       	out	0x21, r24	; 33
     746:	11 bc       	out	0x21, r1	; 33
     748:	0f be       	out	0x3f, r0	; 63
	stdout = &mystdout; // set default stream
     74a:	8b e6       	ldi	r24, 0x6B	; 107
     74c:	90 e0       	ldi	r25, 0x00	; 0
     74e:	90 93 cc 00 	sts	0x00CC, r25
     752:	80 93 cb 00 	sts	0x00CB, r24
	
	DDRB |= (1 << WHITE_LED) | (0 << 3)| (0 << 4);   //0 = input, 1 = output,WHITE_LED is output PB3 is input, PB4 is input 
     756:	b9 9a       	sbi	0x17, 1	; 23
	PORTB |= 1<<DDB3 | 1<<DDB4;
     758:	88 b3       	in	r24, 0x18	; 24
     75a:	88 61       	ori	r24, 0x18	; 24
     75c:	88 bb       	out	0x18, r24	; 24
	
	ADCSRA |= (1 << ADPS2) | (1 << ADPS1) | (0 << ADPS0); //ADC Prescalar set to 64 - 125kHz@8MHz 
     75e:	86 b1       	in	r24, 0x06	; 6
     760:	86 60       	ori	r24, 0x06	; 6
     762:	86 b9       	out	0x06, r24	; 6
	ADMUX |= (0 << REFS0) | (0 << REFS1);      //Sets ref. voltage to VCC +5v 
     764:	87 b1       	in	r24, 0x07	; 7
     766:	87 b9       	out	0x07, r24	; 7
	
	ADMUX |= (0 << MUX3) | (0 << MUX2) | (1 << MUX1) | (1 << MUX0);   //Selects channel ADC2 (PB4) with 1x Gain 
     768:	87 b1       	in	r24, 0x07	; 7
     76a:	83 60       	ori	r24, 0x03	; 3
     76c:	87 b9       	out	0x07, r24	; 7
	ADCSRA = UTIL_BIN8(1000, 0111); /* enable ADC, not free running, interrupt disable, rate = 1/128 */
     76e:	87 e8       	ldi	r24, 0x87	; 135
     770:	86 b9       	out	0x06, r24	; 6
	
	TCCR1 = 0x0b;           /* select clock: 16.5M/1k -> overflow rate = 16.5M/256k = 62.94 Hz */
     772:	8b e0       	ldi	r24, 0x0B	; 11
     774:	80 bf       	out	0x30, r24	; 48
	
	sbi(PORTB, WHITE_LED);
     776:	c1 9a       	sbi	0x18, 1	; 24
     778:	80 e0       	ldi	r24, 0x00	; 0
     77a:	90 e0       	ldi	r25, 0x00	; 0
    milliseconds can be achieved.
 */
void
_delay_loop_2(uint16_t __count)
{
	__asm__ volatile (
     77c:	23 eb       	ldi	r18, 0xB3	; 179
     77e:	31 ef       	ldi	r19, 0xF1	; 241
     780:	f9 01       	movw	r30, r18
     782:	31 97       	sbiw	r30, 0x01	; 1
     784:	f1 f7       	brne	.-4      	; 0x782 <main+0x4e>
    for(i=0;i<20;i++){  /* 300 ms disconnect */
     786:	01 96       	adiw	r24, 0x01	; 1
     788:	84 31       	cpi	r24, 0x14	; 20
     78a:	91 05       	cpc	r25, r1
     78c:	c9 f7       	brne	.-14     	; 0x780 <main+0x4c>
        _delay_ms(15);
    }
	cbi(PORTB, WHITE_LED);
     78e:	c1 98       	cbi	0x18, 1	; 24
	
	sbi(PORTB, YELLOW_LED);
     790:	c1 9a       	sbi	0x18, 1	; 24
     792:	80 e0       	ldi	r24, 0x00	; 0
     794:	90 e0       	ldi	r25, 0x00	; 0
     796:	23 eb       	ldi	r18, 0xB3	; 179
     798:	31 ef       	ldi	r19, 0xF1	; 241
     79a:	f9 01       	movw	r30, r18
     79c:	31 97       	sbiw	r30, 0x01	; 1
     79e:	f1 f7       	brne	.-4      	; 0x79c <main+0x68>
    for(i=0;i<20;i++){  /* 300 ms disconnect */
     7a0:	01 96       	adiw	r24, 0x01	; 1
     7a2:	84 31       	cpi	r24, 0x14	; 20
     7a4:	91 05       	cpc	r25, r1
     7a6:	c9 f7       	brne	.-14     	; 0x79a <main+0x66>
        _delay_ms(15);
    }
	cbi(PORTB, YELLOW_LED);
     7a8:	c1 98       	cbi	0x18, 1	; 24
	
  usbDeviceDisconnect(); // enforce USB re-enumeration, do this while interrupts are disabled!
     7aa:	b8 9a       	sbi	0x17, 0	; 23
     7ac:	84 ec       	ldi	r24, 0xC4	; 196
     7ae:	99 e0       	ldi	r25, 0x09	; 9
     7b0:	2c e9       	ldi	r18, 0x9C	; 156
     7b2:	31 e0       	ldi	r19, 0x01	; 1
     7b4:	f9 01       	movw	r30, r18
     7b6:	31 97       	sbiw	r30, 0x01	; 1
     7b8:	f1 f7       	brne	.-4      	; 0x7b6 <main+0x82>
		__ticks = (uint16_t) (__ms * 10.0);
		while(__ticks)
		{
			// wait 1/10 ms
			_delay_loop_2(((F_CPU) / 4e3) / 10);
			__ticks --;
     7ba:	01 97       	sbiw	r24, 0x01	; 1
		__ticks = 1;
	else if (__tmp > 65535)
	{
		//	__ticks = requested delay in 1/10 ms
		__ticks = (uint16_t) (__ms * 10.0);
		while(__ticks)
     7bc:	d9 f7       	brne	.-10     	; 0x7b4 <main+0x80>
	_delay_ms(250);
  usbDeviceConnect();
     7be:	b8 98       	cbi	0x17, 0	; 23
  usbInit(); // start v-usb
     7c0:	f5 d1       	rcall	.+1002   	; 0xbac <usbInit>
  sei(); // enable interrupts	
     7c2:	78 94       	sei
	for(;;){
		// set the report IDs manually
		keyboard_report.report_id = 1;
     7c4:	11 e0       	ldi	r17, 0x01	; 1
		mouse_report.report_id = 2;
     7c6:	82 e0       	ldi	r24, 0x02	; 2
     7c8:	f8 2e       	mov	r15, r24
static void timerPoll(void)
{
static uchar timerCnt;

    if(TIFR & (1 << TOV1)){	//This flag is triggered at 60 hz.
        TIFR = (1 << TOV1); /* clear overflow */
     7ca:	04 e0       	ldi	r16, 0x04	; 4
static void adcPoll()
{
	if (adcmodepool==1){
    	if(adcPending && !(ADCSRA & (1 << ADSC))){
			adcPending = 0;
			printf ("ADC = %d \n",ADC);
     7cc:	c0 e6       	ldi	r28, 0x60	; 96
     7ce:	d0 e0       	ldi	r29, 0x00	; 0
  usbDeviceConnect();
  usbInit(); // start v-usb
  sei(); // enable interrupts	
	for(;;){
		// set the report IDs manually
		keyboard_report.report_id = 1;
     7d0:	10 93 81 00 	sts	0x0081, r17
		mouse_report.report_id = 2;
     7d4:	f0 92 87 00 	sts	0x0087, r15

		if(blink_count == 1){
     7d8:	80 91 7c 00 	lds	r24, 0x007C
     7dc:	90 91 7d 00 	lds	r25, 0x007D
     7e0:	01 97       	sbiw	r24, 0x01	; 1
     7e2:	09 f0       	breq	.+2      	; 0x7e6 <main+0xb2>
     7e4:	64 c0       	rjmp	.+200    	; 0x8ae <main+0x17a>
//----------------------------------------------------//
//----------------------------------------------------//
int poolcout;
static void Poll(void)
{
	sbi(PORTB, WHITE_LED);
     7e6:	c1 9a       	sbi	0x18, 1	; 24
	switch (poolcout++)
     7e8:	80 91 91 00 	lds	r24, 0x0091
     7ec:	90 91 92 00 	lds	r25, 0x0092
     7f0:	01 96       	adiw	r24, 0x01	; 1
     7f2:	90 93 92 00 	sts	0x0092, r25
     7f6:	80 93 91 00 	sts	0x0091, r24
     7fa:	01 97       	sbiw	r24, 0x01	; 1
     7fc:	84 30       	cpi	r24, 0x04	; 4
     7fe:	91 05       	cpc	r25, r1
     800:	c9 f1       	breq	.+114    	; 0x874 <main+0x140>
     802:	85 30       	cpi	r24, 0x05	; 5
     804:	91 05       	cpc	r25, r1
     806:	54 f4       	brge	.+20     	; 0x81c <main+0xe8>
     808:	82 30       	cpi	r24, 0x02	; 2
     80a:	91 05       	cpc	r25, r1
     80c:	d1 f0       	breq	.+52     	; 0x842 <main+0x10e>
     80e:	83 30       	cpi	r24, 0x03	; 3
     810:	91 05       	cpc	r25, r1
     812:	d4 f4       	brge	.+52     	; 0x848 <main+0x114>
     814:	01 97       	sbiw	r24, 0x01	; 1
     816:	09 f0       	breq	.+2      	; 0x81a <main+0xe6>
     818:	45 c0       	rjmp	.+138    	; 0x8a4 <main+0x170>
     81a:	09 c0       	rjmp	.+18     	; 0x82e <main+0xfa>
     81c:	86 30       	cpi	r24, 0x06	; 6
     81e:	91 05       	cpc	r25, r1
     820:	91 f1       	breq	.+100    	; 0x886 <main+0x152>
     822:	86 30       	cpi	r24, 0x06	; 6
     824:	91 05       	cpc	r25, r1
     826:	54 f1       	brlt	.+84     	; 0x87c <main+0x148>
     828:	07 97       	sbiw	r24, 0x07	; 7
     82a:	e1 f5       	brne	.+120    	; 0x8a4 <main+0x170>
     82c:	32 c0       	rjmp	.+100    	; 0x892 <main+0x15e>
      {
         case 1:
			addDigit(0,0);
     82e:	80 e0       	ldi	r24, 0x00	; 0
     830:	60 e0       	ldi	r22, 0x00	; 0
     832:	68 df       	rcall	.-304    	; 0x704 <addDigit>
			addDigit(21,MOD_GUI_RIGHT);
     834:	85 e1       	ldi	r24, 0x15	; 21
     836:	60 e8       	ldi	r22, 0x80	; 128
     838:	65 df       	rcall	.-310    	; 0x704 <addDigit>
			addDigit(0,0);
     83a:	80 e0       	ldi	r24, 0x00	; 0
     83c:	60 e0       	ldi	r22, 0x00	; 0
     83e:	62 df       	rcall	.-316    	; 0x704 <addDigit>
     840:	31 c0       	rjmp	.+98     	; 0x8a4 <main+0x170>
			break;
		case 2:
			puts_P(PSTR("notepad.exe"));
     842:	81 e4       	ldi	r24, 0x41	; 65
     844:	91 e0       	ldi	r25, 0x01	; 1
     846:	14 c0       	rjmp	.+40     	; 0x870 <main+0x13c>
			break;
		case 3:
			puts_P(PSTR("+------------------+"));
     848:	8c e2       	ldi	r24, 0x2C	; 44
     84a:	91 e0       	ldi	r25, 0x01	; 1
     84c:	25 d3       	rcall	.+1610   	; 0xe98 <puts_P>
			puts_P(PSTR("   Hello World    "));
     84e:	87 e1       	ldi	r24, 0x17	; 23
     850:	91 e0       	ldi	r25, 0x01	; 1
     852:	22 d3       	rcall	.+1604   	; 0xe98 <puts_P>
			puts_P(PSTR("------------------"));
     854:	82 e0       	ldi	r24, 0x02	; 2
     856:	91 e0       	ldi	r25, 0x01	; 1
     858:	1f d3       	rcall	.+1598   	; 0xe98 <puts_P>
      		puts_P(PSTR(" (1) USB Keyboad  "));
     85a:	8d ee       	ldi	r24, 0xED	; 237
     85c:	90 e0       	ldi	r25, 0x00	; 0
     85e:	1c d3       	rcall	.+1592   	; 0xe98 <puts_P>
      		puts_P(PSTR("------------------"));
     860:	88 ed       	ldi	r24, 0xD8	; 216
     862:	90 e0       	ldi	r25, 0x00	; 0
     864:	19 d3       	rcall	.+1586   	; 0xe98 <puts_P>
      		puts_P(PSTR(" (2) USB MOuse    "));
     866:	83 ec       	ldi	r24, 0xC3	; 195
     868:	90 e0       	ldi	r25, 0x00	; 0
     86a:	16 d3       	rcall	.+1580   	; 0xe98 <puts_P>
      		puts_P(PSTR("+------------------+"));
     86c:	8e ea       	ldi	r24, 0xAE	; 174
     86e:	90 e0       	ldi	r25, 0x00	; 0
     870:	13 d3       	rcall	.+1574   	; 0xe98 <puts_P>
     872:	18 c0       	rjmp	.+48     	; 0x8a4 <main+0x170>
			break;
		case 4:
			mouse_move(50,0,10);
     874:	82 e3       	ldi	r24, 0x32	; 50
     876:	60 e0       	ldi	r22, 0x00	; 0
     878:	4a e0       	ldi	r20, 0x0A	; 10
     87a:	03 c0       	rjmp	.+6      	; 0x882 <main+0x14e>
			break;
		case 5:
			mouse_move(-50,20,5);
     87c:	8e ec       	ldi	r24, 0xCE	; 206
     87e:	64 e1       	ldi	r22, 0x14	; 20
     880:	45 e0       	ldi	r20, 0x05	; 5
     882:	e4 de       	rcall	.-568    	; 0x64c <mouse_move>
     884:	0f c0       	rjmp	.+30     	; 0x8a4 <main+0x170>
			break;
		case 6:
			//addDigit(76,20); //ctrl+alt+delt	
			puts_P(PSTR("ADC Mode on"));
     886:	82 ea       	ldi	r24, 0xA2	; 162
     888:	90 e0       	ldi	r25, 0x00	; 0
     88a:	06 d3       	rcall	.+1548   	; 0xe98 <puts_P>
			adcmodepool =1;
     88c:	10 93 8d 00 	sts	0x008D, r17
     890:	09 c0       	rjmp	.+18     	; 0x8a4 <main+0x170>
			break;
		case 7:
			puts_P(PSTR("ADC Mode off"));
     892:	85 e9       	ldi	r24, 0x95	; 149
     894:	90 e0       	ldi	r25, 0x00	; 0
     896:	00 d3       	rcall	.+1536   	; 0xe98 <puts_P>
			adcmodepool=0;
     898:	10 92 8d 00 	sts	0x008D, r1
			poolcout=0;
     89c:	10 92 92 00 	sts	0x0092, r1
     8a0:	10 92 91 00 	sts	0x0091, r1
			break;
      }
	

	cbi(PORTB, WHITE_LED);
     8a4:	c1 98       	cbi	0x18, 1	; 24
		keyboard_report.report_id = 1;
		mouse_report.report_id = 2;

		if(blink_count == 1){
			Poll();
			blink_count =0;
     8a6:	10 92 7d 00 	sts	0x007D, r1
     8aa:	10 92 7c 00 	sts	0x007C, r1
		}
		usbPoll();
     8ae:	ac d1       	rcall	.+856    	; 0xc08 <usbPoll>
		inputPoll();
     8b0:	94 de       	rcall	.-728    	; 0x5da <inputPoll>

static void timerPoll(void)
{
static uchar timerCnt;

    if(TIFR & (1 << TOV1)){	//This flag is triggered at 60 hz.
     8b2:	08 b6       	in	r0, 0x38	; 56
     8b4:	02 fe       	sbrs	r0, 2
     8b6:	0d c0       	rjmp	.+26     	; 0x8d2 <main+0x19e>
        TIFR = (1 << TOV1); /* clear overflow */
     8b8:	08 bf       	out	0x38, r16	; 56
		if(++timerCnt >= 31){		 /* ~ 0.5 second interval */
     8ba:	80 91 7e 00 	lds	r24, 0x007E
     8be:	8f 5f       	subi	r24, 0xFF	; 255
     8c0:	80 93 7e 00 	sts	0x007E, r24
     8c4:	8f 31       	cpi	r24, 0x1F	; 31
     8c6:	28 f0       	brcs	.+10     	; 0x8d2 <main+0x19e>
            timerCnt = 0;
     8c8:	10 92 7e 00 	sts	0x007E, r1
			adcPending = 1;
     8cc:	10 93 8c 00 	sts	0x008C, r17
			ADCSRA |= (1 << ADSC);  /* start next conversion */
     8d0:	36 9a       	sbi	0x06, 6	; 6
static uchar    adcPending;
static uint8_t    adcmodepool;

static void adcPoll()
{
	if (adcmodepool==1){
     8d2:	80 91 8d 00 	lds	r24, 0x008D
     8d6:	81 30       	cpi	r24, 0x01	; 1
     8d8:	09 f0       	breq	.+2      	; 0x8dc <main+0x1a8>
     8da:	7a cf       	rjmp	.-268    	; 0x7d0 <main+0x9c>
    	if(adcPending && !(ADCSRA & (1 << ADSC))){
     8dc:	80 91 8c 00 	lds	r24, 0x008C
     8e0:	88 23       	and	r24, r24
     8e2:	09 f4       	brne	.+2      	; 0x8e6 <main+0x1b2>
     8e4:	75 cf       	rjmp	.-278    	; 0x7d0 <main+0x9c>
     8e6:	36 99       	sbic	0x06, 6	; 6
     8e8:	73 cf       	rjmp	.-282    	; 0x7d0 <main+0x9c>
			adcPending = 0;
     8ea:	10 92 8c 00 	sts	0x008C, r1
			printf ("ADC = %d \n",ADC);
     8ee:	84 b1       	in	r24, 0x04	; 4
     8f0:	95 b1       	in	r25, 0x05	; 5
     8f2:	00 d0       	rcall	.+0      	; 0x8f4 <main+0x1c0>
     8f4:	00 d0       	rcall	.+0      	; 0x8f6 <main+0x1c2>
     8f6:	ed b7       	in	r30, 0x3d	; 61
     8f8:	fe b7       	in	r31, 0x3e	; 62
     8fa:	d2 83       	std	Z+2, r29	; 0x02
     8fc:	c1 83       	std	Z+1, r28	; 0x01
     8fe:	94 83       	std	Z+4, r25	; 0x04
     900:	83 83       	std	Z+3, r24	; 0x03
     902:	b8 d2       	rcall	.+1392   	; 0xe74 <printf>
     904:	0f 90       	pop	r0
     906:	0f 90       	pop	r0
     908:	0f 90       	pop	r0
     90a:	0f 90       	pop	r0
     90c:	61 cf       	rjmp	.-318    	; 0x7d0 <main+0x9c>

0000090e <ASCII_to_keycode>:
	send_report_once();	
}	

// translates ASCII to appropriate keyboard report, taking into consideration the status of caps lock
void ASCII_to_keycode(uint8_t ascii)
{
     90e:	ef 92       	push	r14
     910:	ff 92       	push	r15
     912:	0f 93       	push	r16
     914:	1f 93       	push	r17
     916:	cf 93       	push	r28
     918:	df 93       	push	r29
     91a:	98 2f       	mov	r25, r24
	keyboard_report.keycode[0] = 0x00;
	keyboard_report.modifier = 0x00;
     91c:	10 92 82 00 	sts	0x0082, r1
	
	// see scancode.doc appendix C
	
	if (ascii >= 'A' && ascii <= 'Z')
     920:	81 54       	subi	r24, 0x41	; 65
     922:	8a 31       	cpi	r24, 0x1A	; 26
     924:	40 f4       	brcc	.+16     	; 0x936 <ASCII_to_keycode+0x28>
	{
		keyboard_report.keycode[0] = 4 + ascii - 'A'; // set letter
     926:	9d 53       	subi	r25, 0x3D	; 61
     928:	90 93 84 00 	sts	0x0084, r25
		if (bit_is_set(LED_state, 1)) // if caps is on
     92c:	80 91 7f 00 	lds	r24, 0x007F
     930:	81 fd       	sbrc	r24, 1
     932:	24 c1       	rjmp	.+584    	; 0xb7c <ASCII_to_keycode+0x26e>
     934:	0b c0       	rjmp	.+22     	; 0x94c <ASCII_to_keycode+0x3e>
		else
		{
			keyboard_report.modifier = _BV(1); // hold shift // hold shift
		}
	}
	else if (ascii >= 'a' && ascii <= 'z')
     936:	89 2f       	mov	r24, r25
     938:	81 56       	subi	r24, 0x61	; 97
     93a:	8a 31       	cpi	r24, 0x1A	; 26
     93c:	70 f4       	brcc	.+28     	; 0x95a <ASCII_to_keycode+0x4c>
	{
		keyboard_report.keycode[0] = 4 + ascii - 'a'; // set letter
     93e:	9d 55       	subi	r25, 0x5D	; 93
     940:	90 93 84 00 	sts	0x0084, r25
		if (bit_is_set(LED_state, 1)) // if caps is on
     944:	80 91 7f 00 	lds	r24, 0x007F
     948:	81 ff       	sbrs	r24, 1
     94a:	04 c0       	rjmp	.+8      	; 0x954 <ASCII_to_keycode+0x46>
		{
			keyboard_report.modifier = _BV(1); // hold shift // hold shift
     94c:	82 e0       	ldi	r24, 0x02	; 2
     94e:	80 93 82 00 	sts	0x0082, r24
     952:	14 c1       	rjmp	.+552    	; 0xb7c <ASCII_to_keycode+0x26e>
		}
		else
		{
			keyboard_report.modifier = 0x00; // no shift
     954:	10 92 82 00 	sts	0x0082, r1
     958:	11 c1       	rjmp	.+546    	; 0xb7c <ASCII_to_keycode+0x26e>
		}
	}
	else if (ascii >= '0' && ascii <= '9')
     95a:	89 2f       	mov	r24, r25
     95c:	80 53       	subi	r24, 0x30	; 48
     95e:	8a 30       	cpi	r24, 0x0A	; 10
     960:	48 f4       	brcc	.+18     	; 0x974 <ASCII_to_keycode+0x66>
	{
		keyboard_report.modifier = 0x00;
     962:	10 92 82 00 	sts	0x0082, r1
		if (ascii == '0')
     966:	90 33       	cpi	r25, 0x30	; 48
     968:	09 f4       	brne	.+2      	; 0x96c <ASCII_to_keycode+0x5e>
     96a:	aa c0       	rjmp	.+340    	; 0xac0 <ASCII_to_keycode+0x1b2>
		{
			keyboard_report.keycode[0] = 0x27;
		}
		else
		{
			keyboard_report.keycode[0] = 30 + ascii - '1'; 
     96c:	93 51       	subi	r25, 0x13	; 19
     96e:	90 93 84 00 	sts	0x0084, r25
     972:	04 c1       	rjmp	.+520    	; 0xb7c <ASCII_to_keycode+0x26e>
		}
	}
	else
	{
		switch (ascii) // convert ascii to keycode according to documentation
     974:	9a 33       	cpi	r25, 0x3A	; 58
     976:	09 f4       	brne	.+2      	; 0x97a <ASCII_to_keycode+0x6c>
     978:	c3 c0       	rjmp	.+390    	; 0xb00 <ASCII_to_keycode+0x1f2>
     97a:	9b 33       	cpi	r25, 0x3B	; 59
     97c:	d0 f5       	brcc	.+116    	; 0x9f2 <ASCII_to_keycode+0xe4>
     97e:	97 32       	cpi	r25, 0x27	; 39
     980:	09 f4       	brne	.+2      	; 0x984 <ASCII_to_keycode+0x76>
     982:	c6 c0       	rjmp	.+396    	; 0xb10 <ASCII_to_keycode+0x202>
     984:	98 32       	cpi	r25, 0x28	; 40
     986:	e0 f4       	brcc	.+56     	; 0x9c0 <ASCII_to_keycode+0xb2>
     988:	93 32       	cpi	r25, 0x23	; 35
     98a:	09 f4       	brne	.+2      	; 0x98e <ASCII_to_keycode+0x80>
     98c:	73 c0       	rjmp	.+230    	; 0xa74 <ASCII_to_keycode+0x166>
     98e:	94 32       	cpi	r25, 0x24	; 36
     990:	80 f4       	brcc	.+32     	; 0x9b2 <ASCII_to_keycode+0xa4>
     992:	91 32       	cpi	r25, 0x21	; 33
     994:	09 f4       	brne	.+2      	; 0x998 <ASCII_to_keycode+0x8a>
     996:	62 c0       	rjmp	.+196    	; 0xa5c <ASCII_to_keycode+0x14e>
     998:	92 32       	cpi	r25, 0x22	; 34
     99a:	08 f0       	brcs	.+2      	; 0x99e <ASCII_to_keycode+0x90>
     99c:	b6 c0       	rjmp	.+364    	; 0xb0a <ASCII_to_keycode+0x1fc>
     99e:	90 32       	cpi	r25, 0x20	; 32
     9a0:	09 f4       	brne	.+2      	; 0x9a4 <ASCII_to_keycode+0x96>
     9a2:	c7 c0       	rjmp	.+398    	; 0xb32 <ASCII_to_keycode+0x224>
     9a4:	99 30       	cpi	r25, 0x09	; 9
     9a6:	09 f4       	brne	.+2      	; 0x9aa <ASCII_to_keycode+0x9c>
     9a8:	c6 c0       	rjmp	.+396    	; 0xb36 <ASCII_to_keycode+0x228>
     9aa:	9a 30       	cpi	r25, 0x0A	; 10
     9ac:	09 f0       	breq	.+2      	; 0x9b0 <ASCII_to_keycode+0xa2>
     9ae:	c7 c0       	rjmp	.+398    	; 0xb3e <ASCII_to_keycode+0x230>
     9b0:	c4 c0       	rjmp	.+392    	; 0xb3a <ASCII_to_keycode+0x22c>
     9b2:	95 32       	cpi	r25, 0x25	; 37
     9b4:	09 f4       	brne	.+2      	; 0x9b8 <ASCII_to_keycode+0xaa>
     9b6:	68 c0       	rjmp	.+208    	; 0xa88 <ASCII_to_keycode+0x17a>
     9b8:	96 32       	cpi	r25, 0x26	; 38
     9ba:	08 f0       	brcs	.+2      	; 0x9be <ASCII_to_keycode+0xb0>
     9bc:	6f c0       	rjmp	.+222    	; 0xa9c <ASCII_to_keycode+0x18e>
     9be:	5f c0       	rjmp	.+190    	; 0xa7e <ASCII_to_keycode+0x170>
     9c0:	9b 32       	cpi	r25, 0x2B	; 43
     9c2:	09 f4       	brne	.+2      	; 0x9c6 <ASCII_to_keycode+0xb8>
     9c4:	89 c0       	rjmp	.+274    	; 0xad8 <ASCII_to_keycode+0x1ca>
     9c6:	9c 32       	cpi	r25, 0x2C	; 44
     9c8:	38 f4       	brcc	.+14     	; 0x9d8 <ASCII_to_keycode+0xca>
     9ca:	99 32       	cpi	r25, 0x29	; 41
     9cc:	09 f4       	brne	.+2      	; 0x9d0 <ASCII_to_keycode+0xc2>
     9ce:	75 c0       	rjmp	.+234    	; 0xaba <ASCII_to_keycode+0x1ac>
     9d0:	9a 32       	cpi	r25, 0x2A	; 42
     9d2:	08 f0       	brcs	.+2      	; 0x9d6 <ASCII_to_keycode+0xc8>
     9d4:	68 c0       	rjmp	.+208    	; 0xaa6 <ASCII_to_keycode+0x198>
     9d6:	6c c0       	rjmp	.+216    	; 0xab0 <ASCII_to_keycode+0x1a2>
     9d8:	9d 32       	cpi	r25, 0x2D	; 45
     9da:	09 f4       	brne	.+2      	; 0x9de <ASCII_to_keycode+0xd0>
     9dc:	7b c0       	rjmp	.+246    	; 0xad4 <ASCII_to_keycode+0x1c6>
     9de:	9d 32       	cpi	r25, 0x2D	; 45
     9e0:	08 f4       	brcc	.+2      	; 0x9e4 <ASCII_to_keycode+0xd6>
     9e2:	9b c0       	rjmp	.+310    	; 0xb1a <ASCII_to_keycode+0x20c>
     9e4:	9e 32       	cpi	r25, 0x2E	; 46
     9e6:	09 f4       	brne	.+2      	; 0x9ea <ASCII_to_keycode+0xdc>
     9e8:	9d c0       	rjmp	.+314    	; 0xb24 <ASCII_to_keycode+0x216>
     9ea:	9f 32       	cpi	r25, 0x2F	; 47
     9ec:	09 f0       	breq	.+2      	; 0x9f0 <ASCII_to_keycode+0xe2>
     9ee:	a7 c0       	rjmp	.+334    	; 0xb3e <ASCII_to_keycode+0x230>
     9f0:	9e c0       	rjmp	.+316    	; 0xb2e <ASCII_to_keycode+0x220>
     9f2:	9c 35       	cpi	r25, 0x5C	; 92
     9f4:	09 f4       	brne	.+2      	; 0x9f8 <ASCII_to_keycode+0xea>
     9f6:	82 c0       	rjmp	.+260    	; 0xafc <ASCII_to_keycode+0x1ee>
     9f8:	9d 35       	cpi	r25, 0x5D	; 93
     9fa:	a8 f4       	brcc	.+42     	; 0xa26 <ASCII_to_keycode+0x118>
     9fc:	9e 33       	cpi	r25, 0x3E	; 62
     9fe:	09 f4       	brne	.+2      	; 0xa02 <ASCII_to_keycode+0xf4>
     a00:	8e c0       	rjmp	.+284    	; 0xb1e <ASCII_to_keycode+0x210>
     a02:	9f 33       	cpi	r25, 0x3F	; 63
     a04:	38 f4       	brcc	.+14     	; 0xa14 <ASCII_to_keycode+0x106>
     a06:	9c 33       	cpi	r25, 0x3C	; 60
     a08:	09 f4       	brne	.+2      	; 0xa0c <ASCII_to_keycode+0xfe>
     a0a:	84 c0       	rjmp	.+264    	; 0xb14 <ASCII_to_keycode+0x206>
     a0c:	9d 33       	cpi	r25, 0x3D	; 61
     a0e:	08 f0       	brcs	.+2      	; 0xa12 <ASCII_to_keycode+0x104>
     a10:	66 c0       	rjmp	.+204    	; 0xade <ASCII_to_keycode+0x1d0>
     a12:	79 c0       	rjmp	.+242    	; 0xb06 <ASCII_to_keycode+0x1f8>
     a14:	90 34       	cpi	r25, 0x40	; 64
     a16:	49 f1       	breq	.+82     	; 0xa6a <ASCII_to_keycode+0x15c>
     a18:	90 34       	cpi	r25, 0x40	; 64
     a1a:	08 f4       	brcc	.+2      	; 0xa1e <ASCII_to_keycode+0x110>
     a1c:	85 c0       	rjmp	.+266    	; 0xb28 <ASCII_to_keycode+0x21a>
     a1e:	9b 35       	cpi	r25, 0x5B	; 91
     a20:	09 f0       	breq	.+2      	; 0xa24 <ASCII_to_keycode+0x116>
     a22:	8d c0       	rjmp	.+282    	; 0xb3e <ASCII_to_keycode+0x230>
     a24:	61 c0       	rjmp	.+194    	; 0xae8 <ASCII_to_keycode+0x1da>
     a26:	90 36       	cpi	r25, 0x60	; 96
     a28:	09 f4       	brne	.+2      	; 0xa2c <ASCII_to_keycode+0x11e>
     a2a:	4f c0       	rjmp	.+158    	; 0xaca <ASCII_to_keycode+0x1bc>
     a2c:	91 36       	cpi	r25, 0x61	; 97
     a2e:	30 f4       	brcc	.+12     	; 0xa3c <ASCII_to_keycode+0x12e>
     a30:	9e 35       	cpi	r25, 0x5E	; 94
     a32:	79 f1       	breq	.+94     	; 0xa92 <ASCII_to_keycode+0x184>
     a34:	9f 35       	cpi	r25, 0x5F	; 95
     a36:	08 f0       	brcs	.+2      	; 0xa3a <ASCII_to_keycode+0x12c>
     a38:	4a c0       	rjmp	.+148    	; 0xace <ASCII_to_keycode+0x1c0>
     a3a:	5b c0       	rjmp	.+182    	; 0xaf2 <ASCII_to_keycode+0x1e4>
     a3c:	9c 37       	cpi	r25, 0x7C	; 124
     a3e:	09 f4       	brne	.+2      	; 0xa42 <ASCII_to_keycode+0x134>
     a40:	5a c0       	rjmp	.+180    	; 0xaf6 <ASCII_to_keycode+0x1e8>
     a42:	9d 37       	cpi	r25, 0x7D	; 125
     a44:	20 f4       	brcc	.+8      	; 0xa4e <ASCII_to_keycode+0x140>
     a46:	9b 37       	cpi	r25, 0x7B	; 123
     a48:	09 f0       	breq	.+2      	; 0xa4c <ASCII_to_keycode+0x13e>
     a4a:	79 c0       	rjmp	.+242    	; 0xb3e <ASCII_to_keycode+0x230>
     a4c:	4a c0       	rjmp	.+148    	; 0xae2 <ASCII_to_keycode+0x1d4>
     a4e:	9d 37       	cpi	r25, 0x7D	; 125
     a50:	09 f4       	brne	.+2      	; 0xa54 <ASCII_to_keycode+0x146>
     a52:	4c c0       	rjmp	.+152    	; 0xaec <ASCII_to_keycode+0x1de>
     a54:	9e 37       	cpi	r25, 0x7E	; 126
     a56:	09 f0       	breq	.+2      	; 0xa5a <ASCII_to_keycode+0x14c>
     a58:	72 c0       	rjmp	.+228    	; 0xb3e <ASCII_to_keycode+0x230>
     a5a:	34 c0       	rjmp	.+104    	; 0xac4 <ASCII_to_keycode+0x1b6>
		{
			case '!':
				keyboard_report.modifier = _BV(1); // hold shift
     a5c:	82 e0       	ldi	r24, 0x02	; 2
     a5e:	80 93 82 00 	sts	0x0082, r24
				keyboard_report.keycode[0] = 29 + 1;
     a62:	8e e1       	ldi	r24, 0x1E	; 30
     a64:	80 93 84 00 	sts	0x0084, r24
     a68:	89 c0       	rjmp	.+274    	; 0xb7c <ASCII_to_keycode+0x26e>
				break;
			case '@':
				keyboard_report.modifier = _BV(1); // hold shift
     a6a:	82 e0       	ldi	r24, 0x02	; 2
     a6c:	80 93 82 00 	sts	0x0082, r24
				keyboard_report.keycode[0] = 29 + 2;
     a70:	8f e1       	ldi	r24, 0x1F	; 31
     a72:	f8 cf       	rjmp	.-16     	; 0xa64 <ASCII_to_keycode+0x156>
				break;
			case '#':
				keyboard_report.modifier = _BV(1); // hold shift
     a74:	82 e0       	ldi	r24, 0x02	; 2
     a76:	80 93 82 00 	sts	0x0082, r24
				keyboard_report.keycode[0] = 29 + 3;
     a7a:	80 e2       	ldi	r24, 0x20	; 32
     a7c:	f3 cf       	rjmp	.-26     	; 0xa64 <ASCII_to_keycode+0x156>
				break;
			case '$':
				keyboard_report.modifier = _BV(1); // hold shift
     a7e:	82 e0       	ldi	r24, 0x02	; 2
     a80:	80 93 82 00 	sts	0x0082, r24
				keyboard_report.keycode[0] = 29 + 4;
     a84:	81 e2       	ldi	r24, 0x21	; 33
     a86:	ee cf       	rjmp	.-36     	; 0xa64 <ASCII_to_keycode+0x156>
				break;
			case '%':
				keyboard_report.modifier = _BV(1); // hold shift
     a88:	82 e0       	ldi	r24, 0x02	; 2
     a8a:	80 93 82 00 	sts	0x0082, r24
				keyboard_report.keycode[0] = 29 + 5;
     a8e:	82 e2       	ldi	r24, 0x22	; 34
     a90:	e9 cf       	rjmp	.-46     	; 0xa64 <ASCII_to_keycode+0x156>
				break;
			case '^':
				keyboard_report.modifier = _BV(1); // hold shift
     a92:	82 e0       	ldi	r24, 0x02	; 2
     a94:	80 93 82 00 	sts	0x0082, r24
				keyboard_report.keycode[0] = 29 + 6;
     a98:	83 e2       	ldi	r24, 0x23	; 35
     a9a:	e4 cf       	rjmp	.-56     	; 0xa64 <ASCII_to_keycode+0x156>
				break;
			case '&':
				keyboard_report.modifier = _BV(1); // hold shift
     a9c:	82 e0       	ldi	r24, 0x02	; 2
     a9e:	80 93 82 00 	sts	0x0082, r24
				keyboard_report.keycode[0] = 29 + 7;
     aa2:	84 e2       	ldi	r24, 0x24	; 36
     aa4:	df cf       	rjmp	.-66     	; 0xa64 <ASCII_to_keycode+0x156>
				break;
			case '*':
				keyboard_report.modifier = _BV(1); // hold shift
     aa6:	82 e0       	ldi	r24, 0x02	; 2
     aa8:	80 93 82 00 	sts	0x0082, r24
				keyboard_report.keycode[0] = 29 + 8;
     aac:	85 e2       	ldi	r24, 0x25	; 37
     aae:	da cf       	rjmp	.-76     	; 0xa64 <ASCII_to_keycode+0x156>
				break;
			case '(':
				keyboard_report.modifier = _BV(1); // hold shift
     ab0:	82 e0       	ldi	r24, 0x02	; 2
     ab2:	80 93 82 00 	sts	0x0082, r24
				keyboard_report.keycode[0] = 29 + 9;
     ab6:	86 e2       	ldi	r24, 0x26	; 38
     ab8:	d5 cf       	rjmp	.-86     	; 0xa64 <ASCII_to_keycode+0x156>
				break;
			case ')':
				keyboard_report.modifier = _BV(1); // hold shift
     aba:	82 e0       	ldi	r24, 0x02	; 2
     abc:	80 93 82 00 	sts	0x0082, r24
				keyboard_report.keycode[0] = 0x27;
     ac0:	87 e2       	ldi	r24, 0x27	; 39
     ac2:	d0 cf       	rjmp	.-96     	; 0xa64 <ASCII_to_keycode+0x156>
				break;
			case '~':
				keyboard_report.modifier = _BV(1); // hold shift
     ac4:	82 e0       	ldi	r24, 0x02	; 2
     ac6:	80 93 82 00 	sts	0x0082, r24
				// fall through
			case '`':
				keyboard_report.keycode[0] = 0x35;
     aca:	85 e3       	ldi	r24, 0x35	; 53
     acc:	cb cf       	rjmp	.-106    	; 0xa64 <ASCII_to_keycode+0x156>
				break;
			case '_':
				keyboard_report.modifier = _BV(1); // hold shift
     ace:	82 e0       	ldi	r24, 0x02	; 2
     ad0:	80 93 82 00 	sts	0x0082, r24
				// fall through
			case '-':
				keyboard_report.keycode[0] = 0x2D;
     ad4:	8d e2       	ldi	r24, 0x2D	; 45
     ad6:	c6 cf       	rjmp	.-116    	; 0xa64 <ASCII_to_keycode+0x156>
				break;
			case '+':
				keyboard_report.modifier = _BV(1); // hold shift
     ad8:	82 e0       	ldi	r24, 0x02	; 2
     ada:	80 93 82 00 	sts	0x0082, r24
				// fall through
			case '=':
				keyboard_report.keycode[0] = 0x2E;
     ade:	8e e2       	ldi	r24, 0x2E	; 46
     ae0:	c1 cf       	rjmp	.-126    	; 0xa64 <ASCII_to_keycode+0x156>
				break;
			case '{':
				keyboard_report.modifier = _BV(1); // hold shift
     ae2:	82 e0       	ldi	r24, 0x02	; 2
     ae4:	80 93 82 00 	sts	0x0082, r24
				// fall through
			case '[':
				keyboard_report.keycode[0] = 0x2F;
     ae8:	8f e2       	ldi	r24, 0x2F	; 47
     aea:	bc cf       	rjmp	.-136    	; 0xa64 <ASCII_to_keycode+0x156>
				break;
			case '}':
				keyboard_report.modifier = _BV(1); // hold shift
     aec:	82 e0       	ldi	r24, 0x02	; 2
     aee:	80 93 82 00 	sts	0x0082, r24
				// fall through
			case ']':
				keyboard_report.keycode[0] = 0x30;
     af2:	80 e3       	ldi	r24, 0x30	; 48
     af4:	b7 cf       	rjmp	.-146    	; 0xa64 <ASCII_to_keycode+0x156>
				break;
			case '|':
				keyboard_report.modifier = _BV(1); // hold shift
     af6:	82 e0       	ldi	r24, 0x02	; 2
     af8:	80 93 82 00 	sts	0x0082, r24
				// fall through
			case '\\':
				keyboard_report.keycode[0] = 0x31;
     afc:	81 e3       	ldi	r24, 0x31	; 49
     afe:	b2 cf       	rjmp	.-156    	; 0xa64 <ASCII_to_keycode+0x156>
				break;
			case ':':
				keyboard_report.modifier = _BV(1); // hold shift
     b00:	82 e0       	ldi	r24, 0x02	; 2
     b02:	80 93 82 00 	sts	0x0082, r24
				// fall through
			case ';':
				keyboard_report.keycode[0] = 0x33;
     b06:	83 e3       	ldi	r24, 0x33	; 51
     b08:	ad cf       	rjmp	.-166    	; 0xa64 <ASCII_to_keycode+0x156>
				break;
			case '"':
				keyboard_report.modifier = _BV(1); // hold shift
     b0a:	82 e0       	ldi	r24, 0x02	; 2
     b0c:	80 93 82 00 	sts	0x0082, r24
				// fall through
			case '\'':
				keyboard_report.keycode[0] = 0x34;
     b10:	84 e3       	ldi	r24, 0x34	; 52
     b12:	a8 cf       	rjmp	.-176    	; 0xa64 <ASCII_to_keycode+0x156>
				break;
			case '<':
				keyboard_report.modifier = _BV(1); // hold shift
     b14:	82 e0       	ldi	r24, 0x02	; 2
     b16:	80 93 82 00 	sts	0x0082, r24
				// fall through
			case ',':
				keyboard_report.keycode[0] = 0x36;
     b1a:	86 e3       	ldi	r24, 0x36	; 54
     b1c:	a3 cf       	rjmp	.-186    	; 0xa64 <ASCII_to_keycode+0x156>
				break;
			case '>':
				keyboard_report.modifier = _BV(1); // hold shift
     b1e:	82 e0       	ldi	r24, 0x02	; 2
     b20:	80 93 82 00 	sts	0x0082, r24
				// fall through
			case '.':
				keyboard_report.keycode[0] = 0x37;
     b24:	87 e3       	ldi	r24, 0x37	; 55
     b26:	9e cf       	rjmp	.-196    	; 0xa64 <ASCII_to_keycode+0x156>
				break;
			case '?':
				keyboard_report.modifier = _BV(1); // hold shift
     b28:	82 e0       	ldi	r24, 0x02	; 2
     b2a:	80 93 82 00 	sts	0x0082, r24
				// fall through
			case '/':
				keyboard_report.keycode[0] = 0x38;
     b2e:	88 e3       	ldi	r24, 0x38	; 56
     b30:	99 cf       	rjmp	.-206    	; 0xa64 <ASCII_to_keycode+0x156>
				break;
			case ' ':
				keyboard_report.keycode[0] = 0x2C;
     b32:	8c e2       	ldi	r24, 0x2C	; 44
     b34:	97 cf       	rjmp	.-210    	; 0xa64 <ASCII_to_keycode+0x156>
				break;
			case '\t':
				keyboard_report.keycode[0] = 0x2B;
     b36:	8b e2       	ldi	r24, 0x2B	; 43
     b38:	95 cf       	rjmp	.-214    	; 0xa64 <ASCII_to_keycode+0x156>
				break;
			case '\n':
				keyboard_report.keycode[0] = 0x28;
     b3a:	88 e2       	ldi	r24, 0x28	; 40
     b3c:	93 cf       	rjmp	.-218    	; 0xa64 <ASCII_to_keycode+0x156>
				break;
			default:
				alt_input(ascii);
     b3e:	09 2f       	mov	r16, r25
     b40:	10 e0       	ldi	r17, 0x00	; 0
     	if(digit == 0){
     		keyboard_report.keycode[0] = 98;
			keyboard_report.modifier = (1<<6);
        }else{
			keyboard_report.keycode[0] = 88 + digit;
			keyboard_report.modifier = (1<<6);
     b42:	20 e4       	ldi	r18, 0x40	; 64
     b44:	f2 2e       	mov	r15, r18
	uchar   digit;
	do{
    	digit = code % 10;
    	code /= 10;
     	if(digit == 0){
     		keyboard_report.keycode[0] = 98;
     b46:	92 e6       	ldi	r25, 0x62	; 98
     b48:	e9 2e       	mov	r14, r25
}

static void alt_input(int code){
	uchar   digit;
	do{
    	digit = code % 10;
     b4a:	c8 01       	movw	r24, r16
     b4c:	6a e0       	ldi	r22, 0x0A	; 10
     b4e:	70 e0       	ldi	r23, 0x00	; 0
     b50:	5f d4       	rcall	.+2238   	; 0x1410 <__divmodhi4>
     b52:	28 2f       	mov	r18, r24
    	code /= 10;
     b54:	c8 01       	movw	r24, r16
     b56:	6a e0       	ldi	r22, 0x0A	; 10
     b58:	70 e0       	ldi	r23, 0x00	; 0
     b5a:	5a d4       	rcall	.+2228   	; 0x1410 <__divmodhi4>
     b5c:	eb 01       	movw	r28, r22
     b5e:	8b 01       	movw	r16, r22
     	if(digit == 0){
     b60:	22 23       	and	r18, r18
     b62:	19 f4       	brne	.+6      	; 0xb6a <ASCII_to_keycode+0x25c>
     		keyboard_report.keycode[0] = 98;
     b64:	e0 92 84 00 	sts	0x0084, r14
     b68:	03 c0       	rjmp	.+6      	; 0xb70 <ASCII_to_keycode+0x262>
			keyboard_report.modifier = (1<<6);
        }else{
			keyboard_report.keycode[0] = 88 + digit;
     b6a:	28 5a       	subi	r18, 0xA8	; 168
     b6c:	20 93 84 00 	sts	0x0084, r18
			keyboard_report.modifier = (1<<6);
     b70:	f0 92 82 00 	sts	0x0082, r15
        }
        send_report_once();
     b74:	c2 dd       	rcall	.-1148   	; 0x6fa <send_report_once>
    }while(code != 0);
     b76:	cd 2b       	or	r28, r29
     b78:	41 f7       	brne	.-48     	; 0xb4a <ASCII_to_keycode+0x23c>
     b7a:	01 c0       	rjmp	.+2      	; 0xb7e <ASCII_to_keycode+0x270>
			default:
				alt_input(ascii);
				return;
		}
	}
	send_report_once();
     b7c:	be dd       	rcall	.-1156   	; 0x6fa <send_report_once>
	keyboard_report_reset(); // release keys
     b7e:	81 e0       	ldi	r24, 0x01	; 1
     b80:	80 93 81 00 	sts	0x0081, r24
     b84:	10 92 82 00 	sts	0x0082, r1
     b88:	10 92 83 00 	sts	0x0083, r1
     b8c:	10 92 84 00 	sts	0x0084, r1
     b90:	10 92 85 00 	sts	0x0085, r1
     b94:	10 92 86 00 	sts	0x0086, r1
	send_report_once();
     b98:	b0 dd       	rcall	.-1184   	; 0x6fa <send_report_once>
}
     b9a:	df 91       	pop	r29
     b9c:	cf 91       	pop	r28
     b9e:	1f 91       	pop	r17
     ba0:	0f 91       	pop	r16
     ba2:	ff 90       	pop	r15
     ba4:	ef 90       	pop	r14
     ba6:	08 95       	ret

00000ba8 <type_out_char>:
}

// stdio's stream will use this funct to type out characters in a string
void type_out_char(uint8_t ascii, FILE *stream)
{
	ASCII_to_keycode(ascii);
     ba8:	b2 de       	rcall	.-668    	; 0x90e <ASCII_to_keycode>
}
     baa:	08 95       	ret

00000bac <usbInit>:
/* ------------------------------------------------------------------------- */

USB_PUBLIC void usbInit(void)
{
#if USB_INTR_CFG_SET != 0
    USB_INTR_CFG |= USB_INTR_CFG_SET;
     bac:	85 b7       	in	r24, 0x35	; 53
     bae:	82 60       	ori	r24, 0x02	; 2
     bb0:	85 bf       	out	0x35, r24	; 53
#endif
#if USB_INTR_CFG_CLR != 0
    USB_INTR_CFG &= ~(USB_INTR_CFG_CLR);
#endif
    USB_INTR_ENABLE |= (1 << USB_INTR_ENABLE_BIT);
     bb2:	8b b7       	in	r24, 0x3b	; 59
     bb4:	80 64       	ori	r24, 0x40	; 64
     bb6:	8b bf       	out	0x3b, r24	; 59
/* ------------------------------------------------------------------------- */

static inline void  usbResetDataToggling(void)
{
#if USB_CFG_HAVE_INTRIN_ENDPOINT && !USB_CFG_SUPPRESS_INTR_CODE
    USB_SET_DATATOKEN1(USB_INITIAL_DATATOKEN);  /* reset data toggling for interrupt endpoint */
     bb8:	8b e4       	ldi	r24, 0x4B	; 75
     bba:	80 93 9f 00 	sts	0x009F, r24
    USB_INTR_CFG &= ~(USB_INTR_CFG_CLR);
#endif
    USB_INTR_ENABLE |= (1 << USB_INTR_ENABLE_BIT);
    usbResetDataToggling();
#if USB_CFG_HAVE_INTRIN_ENDPOINT && !USB_CFG_SUPPRESS_INTR_CODE
    usbTxLen1 = USBPID_NAK;
     bbe:	8a e5       	ldi	r24, 0x5A	; 90
     bc0:	80 93 9e 00 	sts	0x009E, r24
#if USB_CFG_HAVE_INTRIN_ENDPOINT3
    usbTxLen3 = USBPID_NAK;
#endif
#endif
}
     bc4:	08 95       	ret

00000bc6 <usbSetInterrupt>:
    txStatus->len = len + 4;    /* len must be given including sync byte */
    DBG2(0x21 + (((int)txStatus >> 3) & 3), txStatus->buffer, len + 3);
}

USB_PUBLIC void usbSetInterrupt(uchar *data, uchar len)
{
     bc6:	1f 93       	push	r17
     bc8:	dc 01       	movw	r26, r24
     bca:	16 2f       	mov	r17, r22

#if USB_CFG_IMPLEMENT_HALT
    if(usbTxLen1 == USBPID_STALL)
        return;
#endif
    if(txStatus->len & 0x10){   /* packet buffer was empty */
     bcc:	80 91 9e 00 	lds	r24, 0x009E
     bd0:	84 ff       	sbrs	r24, 4
     bd2:	07 c0       	rjmp	.+14     	; 0xbe2 <usbSetInterrupt+0x1c>
        txStatus->buffer[0] ^= USBPID_DATA0 ^ USBPID_DATA1; /* toggle token */
     bd4:	80 91 9f 00 	lds	r24, 0x009F
     bd8:	98 e8       	ldi	r25, 0x88	; 136
     bda:	89 27       	eor	r24, r25
     bdc:	80 93 9f 00 	sts	0x009F, r24
     be0:	03 c0       	rjmp	.+6      	; 0xbe8 <usbSetInterrupt+0x22>
    }else{
        txStatus->len = USBPID_NAK; /* avoid sending outdated (overwritten) interrupt data */
     be2:	8a e5       	ldi	r24, 0x5A	; 90
     be4:	80 93 9e 00 	sts	0x009E, r24
     be8:	91 2f       	mov	r25, r17
     bea:	e0 ea       	ldi	r30, 0xA0	; 160
     bec:	f0 e0       	ldi	r31, 0x00	; 0
    }
    p = txStatus->buffer + 1;
    i = len;
    do{                         /* if len == 0, we still copy 1 byte, but that's no problem */
        *p++ = *data++;
     bee:	8d 91       	ld	r24, X+
     bf0:	81 93       	st	Z+, r24
    }while(--i > 0);            /* loop control at the end is 2 bytes shorter than at beginning */
     bf2:	91 50       	subi	r25, 0x01	; 1
     bf4:	e1 f7       	brne	.-8      	; 0xbee <usbSetInterrupt+0x28>
    usbCrc16Append(&txStatus->buffer[1], len);
     bf6:	80 ea       	ldi	r24, 0xA0	; 160
     bf8:	90 e0       	ldi	r25, 0x00	; 0
     bfa:	61 2f       	mov	r22, r17
     bfc:	16 db       	rcall	.-2516   	; 0x22a <usbCrc16Append>
    txStatus->len = len + 4;    /* len must be given including sync byte */
     bfe:	1c 5f       	subi	r17, 0xFC	; 252
     c00:	10 93 9e 00 	sts	0x009E, r17
}

USB_PUBLIC void usbSetInterrupt(uchar *data, uchar len)
{
    usbGenericSetInterrupt(data, len, &usbTxStatus1);
}
     c04:	1f 91       	pop	r17
     c06:	08 95       	ret

00000c08 <usbPoll>:
}

/* ------------------------------------------------------------------------- */

USB_PUBLIC void usbPoll(void)
{
     c08:	1f 93       	push	r17
     c0a:	cf 93       	push	r28
     c0c:	df 93       	push	r29
schar   len;
uchar   i;

    len = usbRxLen - 3;
     c0e:	60 91 af 00 	lds	r22, 0x00AF
     c12:	63 50       	subi	r22, 0x03	; 3
    if(len >= 0){
     c14:	67 fd       	sbrc	r22, 7
     c16:	c2 c0       	rjmp	.+388    	; 0xd9c <usbPoll+0x194>
 * need data integrity checks with this driver, check the CRC in your app
 * code and report errors back to the host. Since the ACK was already sent,
 * retries must be handled on application level.
 * unsigned crc = usbCrc16(buffer + 1, usbRxLen - 3);
 */
        usbProcessRx(usbRxBuf + USB_BUFSIZE + 1 - usbInputBufOffset, len);
     c18:	80 91 ac 00 	lds	r24, 0x00AC
     c1c:	cc e0       	ldi	r28, 0x0C	; 12
     c1e:	d0 e0       	ldi	r29, 0x00	; 0
     c20:	c8 1b       	sub	r28, r24
     c22:	d1 09       	sbc	r29, r1
     c24:	cd 54       	subi	r28, 0x4D	; 77
     c26:	df 4f       	sbci	r29, 0xFF	; 255
    if(usbRxToken < 0x10){  /* OUT to endpoint != 0: endpoint number in usbRxToken */
        usbFunctionWriteOut(data, len);
        return;
    }
#endif
    if(usbRxToken == (uchar)USBPID_SETUP){
     c28:	80 91 ab 00 	lds	r24, 0x00AB
     c2c:	8d 32       	cpi	r24, 0x2D	; 45
     c2e:	09 f0       	breq	.+2      	; 0xc32 <usbPoll+0x2a>
     c30:	a3 c0       	rjmp	.+326    	; 0xd78 <usbPoll+0x170>
        if(len != 8)    /* Setup size must be always 8 bytes. Ignore otherwise. */
     c32:	68 30       	cpi	r22, 0x08	; 8
     c34:	09 f0       	breq	.+2      	; 0xc38 <usbPoll+0x30>
     c36:	b0 c0       	rjmp	.+352    	; 0xd98 <usbPoll+0x190>
            return;
        usbMsgLen_t replyLen;
        usbTxBuf[0] = USBPID_DATA0;         /* initialize data toggling */
     c38:	83 ec       	ldi	r24, 0xC3	; 195
     c3a:	80 93 93 00 	sts	0x0093, r24
        usbTxLen = USBPID_NAK;              /* abort pending transmit */
     c3e:	8a e5       	ldi	r24, 0x5A	; 90
     c40:	80 93 7a 00 	sts	0x007A, r24
        usbMsgFlags = 0;
     c44:	10 92 8e 00 	sts	0x008E, r1
        uchar type = rq->bmRequestType & USBRQ_TYPE_MASK;
        if(type != USBRQ_TYPE_STANDARD){    /* standard requests are handled by driver */
     c48:	88 81       	ld	r24, Y
     c4a:	80 76       	andi	r24, 0x60	; 96
     c4c:	39 f0       	breq	.+14     	; 0xc5c <usbPoll+0x54>
            replyLen = usbFunctionSetup(data);
     c4e:	ce 01       	movw	r24, r28
     c50:	61 dc       	rcall	.-1854   	; 0x514 <usbFunctionSetup>
     c52:	28 2f       	mov	r18, r24
        }else{
            replyLen = usbDriverSetup(rq);
        }
#if USB_CFG_IMPLEMENT_FN_READ || USB_CFG_IMPLEMENT_FN_WRITE
        if(replyLen == USB_NO_MSG){         /* use user-supplied read/write function */
     c54:	8f 3f       	cpi	r24, 0xFF	; 255
     c56:	09 f4       	brne	.+2      	; 0xc5a <usbPoll+0x52>
     c58:	7e c0       	rjmp	.+252    	; 0xd56 <usbPoll+0x14e>
     c5a:	84 c0       	rjmp	.+264    	; 0xd64 <usbPoll+0x15c>
 * standard requests instead of class and custom requests.
 */
static inline usbMsgLen_t usbDriverSetup(usbRequest_t *rq)
{
uchar   len  = 0, *dataPtr = usbTxBuf + 9;  /* there are 2 bytes free space at the end of the buffer */
uchar   value = rq->wValue.bytes[0];
     c5c:	9a 81       	ldd	r25, Y+2	; 0x02
#if USB_CFG_IMPLEMENT_HALT
uchar   index = rq->wIndex.bytes[0];
#endif

    dataPtr[0] = 0; /* default reply common to USBRQ_GET_STATUS and USBRQ_GET_INTERFACE */
     c5e:	10 92 9c 00 	sts	0x009C, r1
    SWITCH_START(rq->bRequest)
     c62:	89 81       	ldd	r24, Y+1	; 0x01
    SWITCH_CASE(USBRQ_GET_STATUS)           /* 0 */
     c64:	88 23       	and	r24, r24
     c66:	21 f4       	brne	.+8      	; 0xc70 <usbPoll+0x68>
            dataPtr[0] =  USB_CFG_IS_SELF_POWERED;
#if USB_CFG_IMPLEMENT_HALT
        if(recipient == USBRQ_RCPT_ENDPOINT && index == 0x81)   /* request status for endpoint 1 */
            dataPtr[0] = usbTxLen1 == USBPID_STALL;
#endif
        dataPtr[1] = 0;
     c68:	10 92 9d 00 	sts	0x009D, r1
     c6c:	22 e0       	ldi	r18, 0x02	; 2
     c6e:	6c c0       	rjmp	.+216    	; 0xd48 <usbPoll+0x140>
        if(value == 0 && index == 0x81){    /* feature 0 == HALT for endpoint == 1 */
            usbTxLen1 = rq->bRequest == USBRQ_CLEAR_FEATURE ? USBPID_NAK : USBPID_STALL;
            usbResetDataToggling();
        }
#endif
    SWITCH_CASE(USBRQ_SET_ADDRESS)          /* 5 */
     c70:	85 30       	cpi	r24, 0x05	; 5
     c72:	19 f4       	brne	.+6      	; 0xc7a <usbPoll+0x72>
        usbNewDeviceAddr = value;
     c74:	90 93 b0 00 	sts	0x00B0, r25
     c78:	66 c0       	rjmp	.+204    	; 0xd46 <usbPoll+0x13e>
        USB_SET_ADDRESS_HOOK();
    SWITCH_CASE(USBRQ_GET_DESCRIPTOR)       /* 6 */
     c7a:	86 30       	cpi	r24, 0x06	; 6
     c7c:	09 f0       	breq	.+2      	; 0xc80 <usbPoll+0x78>
     c7e:	4f c0       	rjmp	.+158    	; 0xd1e <usbPoll+0x116>
static inline usbMsgLen_t usbDriverDescriptor(usbRequest_t *rq)
{
usbMsgLen_t len = 0;
uchar       flags = USB_FLG_MSGPTR_IS_ROM;

    SWITCH_START(rq->wValue.bytes[1])
     c80:	8b 81       	ldd	r24, Y+3	; 0x03
    SWITCH_CASE(USBDESCR_DEVICE)    /* 1 */
     c82:	81 30       	cpi	r24, 0x01	; 1
     c84:	41 f4       	brne	.+16     	; 0xc96 <usbPoll+0x8e>
        GET_DESCRIPTOR(USB_CFG_DESCR_PROPS_DEVICE, usbDescriptorDevice)
     c86:	83 e9       	ldi	r24, 0x93	; 147
     c88:	91 e0       	ldi	r25, 0x01	; 1
     c8a:	90 93 ae 00 	sts	0x00AE, r25
     c8e:	80 93 ad 00 	sts	0x00AD, r24
     c92:	22 e1       	ldi	r18, 0x12	; 18
     c94:	40 c0       	rjmp	.+128    	; 0xd16 <usbPoll+0x10e>
    SWITCH_CASE(USBDESCR_CONFIG)    /* 2 */
     c96:	82 30       	cpi	r24, 0x02	; 2
     c98:	41 f4       	brne	.+16     	; 0xcaa <usbPoll+0xa2>
        GET_DESCRIPTOR(USB_CFG_DESCR_PROPS_CONFIGURATION, usbDescriptorConfiguration)
     c9a:	85 ea       	ldi	r24, 0xA5	; 165
     c9c:	91 e0       	ldi	r25, 0x01	; 1
     c9e:	90 93 ae 00 	sts	0x00AE, r25
     ca2:	80 93 ad 00 	sts	0x00AD, r24
     ca6:	22 e2       	ldi	r18, 0x22	; 34
     ca8:	36 c0       	rjmp	.+108    	; 0xd16 <usbPoll+0x10e>
    SWITCH_CASE(USBDESCR_STRING)    /* 3 */
     caa:	83 30       	cpi	r24, 0x03	; 3
     cac:	f9 f4       	brne	.+62     	; 0xcec <usbPoll+0xe4>
#if USB_CFG_DESCR_PROPS_STRINGS & USB_PROP_IS_DYNAMIC
        if(USB_CFG_DESCR_PROPS_STRINGS & USB_PROP_IS_RAM)
            flags = 0;
        len = usbFunctionDescriptor(rq);
#else   /* USB_CFG_DESCR_PROPS_STRINGS & USB_PROP_IS_DYNAMIC */
        SWITCH_START(rq->wValue.bytes[0])
     cae:	8a 81       	ldd	r24, Y+2	; 0x02
        SWITCH_CASE(0)
     cb0:	88 23       	and	r24, r24
     cb2:	41 f4       	brne	.+16     	; 0xcc4 <usbPoll+0xbc>
            GET_DESCRIPTOR(USB_CFG_DESCR_PROPS_STRING_0, usbDescriptorString0)
     cb4:	8d e4       	ldi	r24, 0x4D	; 77
     cb6:	91 e0       	ldi	r25, 0x01	; 1
     cb8:	90 93 ae 00 	sts	0x00AE, r25
     cbc:	80 93 ad 00 	sts	0x00AD, r24
     cc0:	24 e0       	ldi	r18, 0x04	; 4
     cc2:	29 c0       	rjmp	.+82     	; 0xd16 <usbPoll+0x10e>
        SWITCH_CASE(1)
     cc4:	81 30       	cpi	r24, 0x01	; 1
     cc6:	41 f4       	brne	.+16     	; 0xcd8 <usbPoll+0xd0>
            GET_DESCRIPTOR(USB_CFG_DESCR_PROPS_STRING_VENDOR, usbDescriptorStringVendor)
     cc8:	81 e5       	ldi	r24, 0x51	; 81
     cca:	91 e0       	ldi	r25, 0x01	; 1
     ccc:	90 93 ae 00 	sts	0x00AE, r25
     cd0:	80 93 ad 00 	sts	0x00AD, r24
     cd4:	2c e1       	ldi	r18, 0x1C	; 28
     cd6:	1f c0       	rjmp	.+62     	; 0xd16 <usbPoll+0x10e>
        SWITCH_CASE(2)
     cd8:	82 30       	cpi	r24, 0x02	; 2
     cda:	e1 f4       	brne	.+56     	; 0xd14 <usbPoll+0x10c>
            GET_DESCRIPTOR(USB_CFG_DESCR_PROPS_STRING_PRODUCT, usbDescriptorStringDevice)
     cdc:	8d e6       	ldi	r24, 0x6D	; 109
     cde:	91 e0       	ldi	r25, 0x01	; 1
     ce0:	90 93 ae 00 	sts	0x00AE, r25
     ce4:	80 93 ad 00 	sts	0x00AD, r24
     ce8:	26 e2       	ldi	r18, 0x26	; 38
     cea:	15 c0       	rjmp	.+42     	; 0xd16 <usbPoll+0x10e>
                len = usbFunctionDescriptor(rq);
            }
        SWITCH_END
#endif  /* USB_CFG_DESCR_PROPS_STRINGS & USB_PROP_IS_DYNAMIC */
#if USB_CFG_DESCR_PROPS_HID_REPORT  /* only support HID descriptors if enabled */
    SWITCH_CASE(USBDESCR_HID)       /* 0x21 */
     cec:	81 32       	cpi	r24, 0x21	; 33
     cee:	41 f4       	brne	.+16     	; 0xd00 <usbPoll+0xf8>
        GET_DESCRIPTOR(USB_CFG_DESCR_PROPS_HID, usbDescriptorConfiguration + 18)
     cf0:	87 eb       	ldi	r24, 0xB7	; 183
     cf2:	91 e0       	ldi	r25, 0x01	; 1
     cf4:	90 93 ae 00 	sts	0x00AE, r25
     cf8:	80 93 ad 00 	sts	0x00AD, r24
     cfc:	29 e0       	ldi	r18, 0x09	; 9
     cfe:	0b c0       	rjmp	.+22     	; 0xd16 <usbPoll+0x10e>
    SWITCH_CASE(USBDESCR_HID_REPORT)/* 0x22 */
     d00:	82 32       	cpi	r24, 0x22	; 34
     d02:	41 f4       	brne	.+16     	; 0xd14 <usbPoll+0x10c>
        GET_DESCRIPTOR(USB_CFG_DESCR_PROPS_HID_REPORT, usbDescriptorHidReport)
     d04:	8e e1       	ldi	r24, 0x1E	; 30
     d06:	90 e0       	ldi	r25, 0x00	; 0
     d08:	90 93 ae 00 	sts	0x00AE, r25
     d0c:	80 93 ad 00 	sts	0x00AD, r24
     d10:	27 e7       	ldi	r18, 0x77	; 119
     d12:	01 c0       	rjmp	.+2      	; 0xd16 <usbPoll+0x10e>
     d14:	20 e0       	ldi	r18, 0x00	; 0
    SWITCH_DEFAULT
        if(USB_CFG_DESCR_PROPS_UNKNOWN & USB_PROP_IS_DYNAMIC){
            len = usbFunctionDescriptor(rq);
        }
    SWITCH_END
    usbMsgFlags = flags;
     d16:	80 e4       	ldi	r24, 0x40	; 64
     d18:	80 93 8e 00 	sts	0x008E, r24
     d1c:	23 c0       	rjmp	.+70     	; 0xd64 <usbPoll+0x15c>
        usbNewDeviceAddr = value;
        USB_SET_ADDRESS_HOOK();
    SWITCH_CASE(USBRQ_GET_DESCRIPTOR)       /* 6 */
        len = usbDriverDescriptor(rq);
        goto skipMsgPtrAssignment;
    SWITCH_CASE(USBRQ_GET_CONFIGURATION)    /* 8 */
     d1e:	88 30       	cpi	r24, 0x08	; 8
     d20:	21 f4       	brne	.+8      	; 0xd2a <usbPoll+0x122>
     d22:	21 e0       	ldi	r18, 0x01	; 1
     d24:	82 eb       	ldi	r24, 0xB2	; 178
     d26:	90 e0       	ldi	r25, 0x00	; 0
     d28:	11 c0       	rjmp	.+34     	; 0xd4c <usbPoll+0x144>
        dataPtr = &usbConfiguration;  /* send current configuration value */
        len = 1;
    SWITCH_CASE(USBRQ_SET_CONFIGURATION)    /* 9 */
     d2a:	89 30       	cpi	r24, 0x09	; 9
     d2c:	19 f4       	brne	.+6      	; 0xd34 <usbPoll+0x12c>
        usbConfiguration = value;
     d2e:	90 93 b2 00 	sts	0x00B2, r25
     d32:	09 c0       	rjmp	.+18     	; 0xd46 <usbPoll+0x13e>
        usbResetStall();
    SWITCH_CASE(USBRQ_GET_INTERFACE)        /* 10 */
     d34:	8a 30       	cpi	r24, 0x0A	; 10
     d36:	11 f4       	brne	.+4      	; 0xd3c <usbPoll+0x134>
     d38:	21 e0       	ldi	r18, 0x01	; 1
     d3a:	06 c0       	rjmp	.+12     	; 0xd48 <usbPoll+0x140>
        len = 1;
#if USB_CFG_HAVE_INTRIN_ENDPOINT && !USB_CFG_SUPPRESS_INTR_CODE
    SWITCH_CASE(USBRQ_SET_INTERFACE)        /* 11 */
     d3c:	8b 30       	cpi	r24, 0x0B	; 11
     d3e:	19 f4       	brne	.+6      	; 0xd46 <usbPoll+0x13e>
/* ------------------------------------------------------------------------- */

static inline void  usbResetDataToggling(void)
{
#if USB_CFG_HAVE_INTRIN_ENDPOINT && !USB_CFG_SUPPRESS_INTR_CODE
    USB_SET_DATATOKEN1(USB_INITIAL_DATATOKEN);  /* reset data toggling for interrupt endpoint */
     d40:	8b e4       	ldi	r24, 0x4B	; 75
     d42:	80 93 9f 00 	sts	0x009F, r24
     d46:	20 e0       	ldi	r18, 0x00	; 0
     d48:	8c e9       	ldi	r24, 0x9C	; 156
     d4a:	90 e0       	ldi	r25, 0x00	; 0
        usbResetStall();
#endif
    SWITCH_DEFAULT                          /* 7=SET_DESCRIPTOR, 12=SYNC_FRAME */
        /* Should we add an optional hook here? */
    SWITCH_END
    usbMsgPtr = dataPtr;
     d4c:	90 93 ae 00 	sts	0x00AE, r25
     d50:	80 93 ad 00 	sts	0x00AD, r24
     d54:	07 c0       	rjmp	.+14     	; 0xd64 <usbPoll+0x15c>
            replyLen = usbDriverSetup(rq);
        }
#if USB_CFG_IMPLEMENT_FN_READ || USB_CFG_IMPLEMENT_FN_WRITE
        if(replyLen == USB_NO_MSG){         /* use user-supplied read/write function */
            /* do some conditioning on replyLen, but on IN transfers only */
            if((rq->bmRequestType & USBRQ_DIR_MASK) != USBRQ_DIR_HOST_TO_DEVICE){
     d56:	88 81       	ld	r24, Y
     d58:	87 fd       	sbrc	r24, 7
                if(sizeof(replyLen) < sizeof(rq->wLength.word)){ /* help compiler with optimizing */
                    replyLen = rq->wLength.bytes[0];
     d5a:	2e 81       	ldd	r18, Y+6	; 0x06
                }else{
                    replyLen = rq->wLength.word;
                }
            }
            usbMsgFlags = USB_FLG_USE_USER_RW;
     d5c:	80 e8       	ldi	r24, 0x80	; 128
     d5e:	80 93 8e 00 	sts	0x008E, r24
     d62:	06 c0       	rjmp	.+12     	; 0xd70 <usbPoll+0x168>
        }else   /* The 'else' prevents that we limit a replyLen of USB_NO_MSG to the maximum transfer len. */
#endif
        if(sizeof(replyLen) < sizeof(rq->wLength.word)){ /* help compiler with optimizing */
            if(!rq->wLength.bytes[1] && replyLen > rq->wLength.bytes[0])    /* limit length to max */
     d64:	8f 81       	ldd	r24, Y+7	; 0x07
     d66:	88 23       	and	r24, r24
     d68:	19 f4       	brne	.+6      	; 0xd70 <usbPoll+0x168>
     d6a:	8e 81       	ldd	r24, Y+6	; 0x06
     d6c:	82 17       	cp	r24, r18
     d6e:	08 f0       	brcs	.+2      	; 0xd72 <usbPoll+0x16a>
     d70:	82 2f       	mov	r24, r18
                replyLen = rq->wLength.bytes[0];
        }else{
            if(replyLen > rq->wLength.word)     /* limit length to max */
                replyLen = rq->wLength.word;
        }
        usbMsgLen = replyLen;
     d72:	80 93 7b 00 	sts	0x007B, r24
     d76:	10 c0       	rjmp	.+32     	; 0xd98 <usbPoll+0x190>
    }else{  /* usbRxToken must be USBPID_OUT, which means data phase of setup (control-out) */
#if USB_CFG_IMPLEMENT_FN_WRITE
        if(usbMsgFlags & USB_FLG_USE_USER_RW){
     d78:	80 91 8e 00 	lds	r24, 0x008E
     d7c:	87 ff       	sbrs	r24, 7
     d7e:	0c c0       	rjmp	.+24     	; 0xd98 <usbPoll+0x190>
            uchar rval = usbFunctionWrite(data, len);
     d80:	ce 01       	movw	r24, r28
     d82:	0f dc       	rcall	.-2018   	; 0x5a2 <usbFunctionWrite>
            if(rval == 0xff){   /* an error occurred */
     d84:	8f 3f       	cpi	r24, 0xFF	; 255
     d86:	21 f4       	brne	.+8      	; 0xd90 <usbPoll+0x188>
                usbTxLen = USBPID_STALL;
     d88:	8e e1       	ldi	r24, 0x1E	; 30
     d8a:	80 93 7a 00 	sts	0x007A, r24
     d8e:	04 c0       	rjmp	.+8      	; 0xd98 <usbPoll+0x190>
            }else if(rval != 0){    /* This was the final package */
     d90:	88 23       	and	r24, r24
     d92:	11 f0       	breq	.+4      	; 0xd98 <usbPoll+0x190>
                usbMsgLen = 0;  /* answer with a zero-sized data packet */
     d94:	10 92 7b 00 	sts	0x007B, r1
        usbProcessRx(usbRxBuf + USB_BUFSIZE + 1 - usbInputBufOffset, len);
#if USB_CFG_HAVE_FLOWCONTROL
        if(usbRxLen > 0)    /* only mark as available if not inactivated */
            usbRxLen = 0;
#else
        usbRxLen = 0;       /* mark rx buffer as available */
     d98:	10 92 af 00 	sts	0x00AF, r1
#endif
    }
    if(usbTxLen & 0x10){    /* transmit system idle */
     d9c:	80 91 7a 00 	lds	r24, 0x007A
     da0:	84 ff       	sbrs	r24, 4
     da2:	58 c0       	rjmp	.+176    	; 0xe54 <usbPoll+0x24c>
        if(usbMsgLen != USB_NO_MSG){    /* transmit data pending? */
     da4:	80 91 7b 00 	lds	r24, 0x007B
     da8:	8f 3f       	cpi	r24, 0xFF	; 255
     daa:	09 f4       	brne	.+2      	; 0xdae <usbPoll+0x1a6>
     dac:	53 c0       	rjmp	.+166    	; 0xe54 <usbPoll+0x24c>
     dae:	18 2f       	mov	r17, r24
     db0:	89 30       	cpi	r24, 0x09	; 9
     db2:	08 f0       	brcs	.+2      	; 0xdb6 <usbPoll+0x1ae>
     db4:	18 e0       	ldi	r17, 0x08	; 8
uchar       len;

    wantLen = usbMsgLen;
    if(wantLen > 8)
        wantLen = 8;
    usbMsgLen -= wantLen;
     db6:	81 1b       	sub	r24, r17
     db8:	80 93 7b 00 	sts	0x007B, r24
    usbTxBuf[0] ^= USBPID_DATA0 ^ USBPID_DATA1; /* DATA toggling */
     dbc:	80 91 93 00 	lds	r24, 0x0093
     dc0:	98 e8       	ldi	r25, 0x88	; 136
     dc2:	89 27       	eor	r24, r25
     dc4:	80 93 93 00 	sts	0x0093, r24
/* This function is similar to usbFunctionRead(), but it's also called for
 * data handled automatically by the driver (e.g. descriptor reads).
 */
static uchar usbDeviceRead(uchar *data, uchar len)
{
    if(len > 0){    /* don't bother app with 0 sized reads */
     dc8:	11 23       	and	r17, r17
     dca:	91 f1       	breq	.+100    	; 0xe30 <usbPoll+0x228>
#if USB_CFG_IMPLEMENT_FN_READ
        if(usbMsgFlags & USB_FLG_USE_USER_RW){
     dcc:	80 91 8e 00 	lds	r24, 0x008E
     dd0:	87 ff       	sbrs	r24, 7
     dd2:	08 c0       	rjmp	.+16     	; 0xde4 <usbPoll+0x1dc>
            len = usbFunctionRead(data, len);
     dd4:	84 e9       	ldi	r24, 0x94	; 148
     dd6:	90 e0       	ldi	r25, 0x00	; 0
     dd8:	61 2f       	mov	r22, r17
     dda:	fd db       	rcall	.-2054   	; 0x5d6 <usbFunctionRead>
     ddc:	18 2f       	mov	r17, r24
    if(wantLen > 8)
        wantLen = 8;
    usbMsgLen -= wantLen;
    usbTxBuf[0] ^= USBPID_DATA0 ^ USBPID_DATA1; /* DATA toggling */
    len = usbDeviceRead(usbTxBuf + 1, wantLen);
    if(len <= 8){           /* valid data packet */
     dde:	89 30       	cpi	r24, 0x09	; 9
     de0:	98 f5       	brcc	.+102    	; 0xe48 <usbPoll+0x240>
     de2:	26 c0       	rjmp	.+76     	; 0xe30 <usbPoll+0x228>
        if(usbMsgFlags & USB_FLG_USE_USER_RW){
            len = usbFunctionRead(data, len);
        }else
#endif
        {
            uchar i = len, *r = usbMsgPtr;
     de4:	20 91 ad 00 	lds	r18, 0x00AD
     de8:	30 91 ae 00 	lds	r19, 0x00AE
            if(usbMsgFlags & USB_FLG_MSGPTR_IS_ROM){    /* ROM data */
     dec:	86 ff       	sbrs	r24, 6
     dee:	0d c0       	rjmp	.+26     	; 0xe0a <usbPoll+0x202>
     df0:	a4 e9       	ldi	r26, 0x94	; 148
     df2:	b0 e0       	ldi	r27, 0x00	; 0
     df4:	80 e0       	ldi	r24, 0x00	; 0
     df6:	90 e0       	ldi	r25, 0x00	; 0
                do{
                    uchar c = USB_READ_FLASH(r);    /* assign to char size variable to enforce byte ops */
     df8:	f9 01       	movw	r30, r18
     dfa:	e8 0f       	add	r30, r24
     dfc:	f9 1f       	adc	r31, r25
     dfe:	e4 91       	lpm	r30, Z+
                    *data++ = c;
     e00:	ed 93       	st	X+, r30
     e02:	01 96       	adiw	r24, 0x01	; 1
                    r++;
                }while(--i);
     e04:	18 17       	cp	r17, r24
     e06:	c1 f7       	brne	.-16     	; 0xdf8 <usbPoll+0x1f0>
     e08:	08 c0       	rjmp	.+16     	; 0xe1a <usbPoll+0x212>
     e0a:	91 2f       	mov	r25, r17
     e0c:	d9 01       	movw	r26, r18
     e0e:	e4 e9       	ldi	r30, 0x94	; 148
     e10:	f0 e0       	ldi	r31, 0x00	; 0
            }else{  /* RAM data */
                do{
                    *data++ = *r++;
     e12:	8d 91       	ld	r24, X+
     e14:	81 93       	st	Z+, r24
                }while(--i);
     e16:	91 50       	subi	r25, 0x01	; 1
     e18:	e1 f7       	brne	.-8      	; 0xe12 <usbPoll+0x20a>
     e1a:	11 50       	subi	r17, 0x01	; 1
     e1c:	81 2f       	mov	r24, r17
     e1e:	90 e0       	ldi	r25, 0x00	; 0
     e20:	1f 5f       	subi	r17, 0xFF	; 255
     e22:	01 96       	adiw	r24, 0x01	; 1
     e24:	82 0f       	add	r24, r18
     e26:	93 1f       	adc	r25, r19
            }
            usbMsgPtr = r;
     e28:	90 93 ae 00 	sts	0x00AE, r25
     e2c:	80 93 ad 00 	sts	0x00AD, r24
        wantLen = 8;
    usbMsgLen -= wantLen;
    usbTxBuf[0] ^= USBPID_DATA0 ^ USBPID_DATA1; /* DATA toggling */
    len = usbDeviceRead(usbTxBuf + 1, wantLen);
    if(len <= 8){           /* valid data packet */
        usbCrc16Append(&usbTxBuf[1], len);
     e30:	84 e9       	ldi	r24, 0x94	; 148
     e32:	90 e0       	ldi	r25, 0x00	; 0
     e34:	61 2f       	mov	r22, r17
     e36:	f9 d9       	rcall	.-3086   	; 0x22a <usbCrc16Append>
        len += 4;           /* length including sync byte */
     e38:	61 2f       	mov	r22, r17
     e3a:	6c 5f       	subi	r22, 0xFC	; 252
        if(len < 12)        /* a partial package identifies end of message */
     e3c:	6c 30       	cpi	r22, 0x0C	; 12
     e3e:	41 f0       	breq	.+16     	; 0xe50 <usbPoll+0x248>
            usbMsgLen = USB_NO_MSG;
     e40:	8f ef       	ldi	r24, 0xFF	; 255
     e42:	80 93 7b 00 	sts	0x007B, r24
     e46:	04 c0       	rjmp	.+8      	; 0xe50 <usbPoll+0x248>
    }else{
        len = USBPID_STALL;   /* stall the endpoint */
        usbMsgLen = USB_NO_MSG;
     e48:	8f ef       	ldi	r24, 0xFF	; 255
     e4a:	80 93 7b 00 	sts	0x007B, r24
     e4e:	6e e1       	ldi	r22, 0x1E	; 30
    }
    usbTxLen = len;
     e50:	60 93 7a 00 	sts	0x007A, r22
     e54:	94 e1       	ldi	r25, 0x14	; 20
        if(usbMsgLen != USB_NO_MSG){    /* transmit data pending? */
            usbBuildTxBlock();
        }
    }
    for(i = 20; i > 0; i--){
        uchar usbLineStatus = USBIN & USBMASK;
     e56:	86 b3       	in	r24, 0x16	; 22
        if(usbLineStatus != 0)  /* SE0 has ended */
     e58:	85 70       	andi	r24, 0x05	; 5
     e5a:	31 f4       	brne	.+12     	; 0xe68 <usbPoll+0x260>
    if(usbTxLen & 0x10){    /* transmit system idle */
        if(usbMsgLen != USB_NO_MSG){    /* transmit data pending? */
            usbBuildTxBlock();
        }
    }
    for(i = 20; i > 0; i--){
     e5c:	91 50       	subi	r25, 0x01	; 1
     e5e:	d9 f7       	brne	.-10     	; 0xe56 <usbPoll+0x24e>
        uchar usbLineStatus = USBIN & USBMASK;
        if(usbLineStatus != 0)  /* SE0 has ended */
            goto isNotReset;
    }
    /* RESET condition, called multiple times during reset */
    usbNewDeviceAddr = 0;
     e60:	10 92 b0 00 	sts	0x00B0, r1
    usbDeviceAddr = 0;
     e64:	10 92 aa 00 	sts	0x00AA, r1
    usbResetStall();
    DBG1(0xff, 0, 0);
isNotReset:
    usbHandleResetHook(i);
}
     e68:	df 91       	pop	r29
     e6a:	cf 91       	pop	r28
     e6c:	1f 91       	pop	r17
     e6e:	08 95       	ret

00000e70 <exit>:
     e70:	f8 94       	cli
     e72:	2c c3       	rjmp	.+1624   	; 0x14cc <_exit>

00000e74 <printf>:
     e74:	a0 e0       	ldi	r26, 0x00	; 0
     e76:	b0 e0       	ldi	r27, 0x00	; 0
     e78:	ef e3       	ldi	r30, 0x3F	; 63
     e7a:	f7 e0       	ldi	r31, 0x07	; 7
     e7c:	ec c2       	rjmp	.+1496   	; 0x1456 <__prologue_saves__+0x20>
     e7e:	fe 01       	movw	r30, r28
     e80:	35 96       	adiw	r30, 0x05	; 5
     e82:	61 91       	ld	r22, Z+
     e84:	71 91       	ld	r23, Z+
     e86:	80 91 cb 00 	lds	r24, 0x00CB
     e8a:	90 91 cc 00 	lds	r25, 0x00CC
     e8e:	af 01       	movw	r20, r30
     e90:	38 d0       	rcall	.+112    	; 0xf02 <vfprintf>
     e92:	20 96       	adiw	r28, 0x00	; 0
     e94:	e2 e0       	ldi	r30, 0x02	; 2
     e96:	fb c2       	rjmp	.+1526   	; 0x148e <__epilogue_restores__+0x20>

00000e98 <puts_P>:
     e98:	0f 93       	push	r16
     e9a:	1f 93       	push	r17
     e9c:	cf 93       	push	r28
     e9e:	df 93       	push	r29
     ea0:	ec 01       	movw	r28, r24
     ea2:	e0 91 cb 00 	lds	r30, 0x00CB
     ea6:	f0 91 cc 00 	lds	r31, 0x00CC
     eaa:	83 81       	ldd	r24, Z+3	; 0x03
     eac:	81 ff       	sbrs	r24, 1
     eae:	21 c0       	rjmp	.+66     	; 0xef2 <puts_P+0x5a>
     eb0:	00 e0       	ldi	r16, 0x00	; 0
     eb2:	10 e0       	ldi	r17, 0x00	; 0
     eb4:	0e c0       	rjmp	.+28     	; 0xed2 <puts_P+0x3a>
     eb6:	e0 91 cb 00 	lds	r30, 0x00CB
     eba:	f0 91 cc 00 	lds	r31, 0x00CC
     ebe:	20 85       	ldd	r18, Z+8	; 0x08
     ec0:	31 85       	ldd	r19, Z+9	; 0x09
     ec2:	bf 01       	movw	r22, r30
     ec4:	f9 01       	movw	r30, r18
     ec6:	09 95       	icall
     ec8:	89 2b       	or	r24, r25
     eca:	11 f0       	breq	.+4      	; 0xed0 <puts_P+0x38>
     ecc:	0f ef       	ldi	r16, 0xFF	; 255
     ece:	1f ef       	ldi	r17, 0xFF	; 255
     ed0:	21 96       	adiw	r28, 0x01	; 1
     ed2:	fe 01       	movw	r30, r28
     ed4:	84 91       	lpm	r24, Z+
     ed6:	88 23       	and	r24, r24
     ed8:	71 f7       	brne	.-36     	; 0xeb6 <puts_P+0x1e>
     eda:	e0 91 cb 00 	lds	r30, 0x00CB
     ede:	f0 91 cc 00 	lds	r31, 0x00CC
     ee2:	20 85       	ldd	r18, Z+8	; 0x08
     ee4:	31 85       	ldd	r19, Z+9	; 0x09
     ee6:	8a e0       	ldi	r24, 0x0A	; 10
     ee8:	bf 01       	movw	r22, r30
     eea:	f9 01       	movw	r30, r18
     eec:	09 95       	icall
     eee:	89 2b       	or	r24, r25
     ef0:	11 f0       	breq	.+4      	; 0xef6 <puts_P+0x5e>
     ef2:	0f ef       	ldi	r16, 0xFF	; 255
     ef4:	1f ef       	ldi	r17, 0xFF	; 255
     ef6:	c8 01       	movw	r24, r16
     ef8:	df 91       	pop	r29
     efa:	cf 91       	pop	r28
     efc:	1f 91       	pop	r17
     efe:	0f 91       	pop	r16
     f00:	08 95       	ret

00000f02 <vfprintf>:
     f02:	ab e0       	ldi	r26, 0x0B	; 11
     f04:	b0 e0       	ldi	r27, 0x00	; 0
     f06:	e6 e8       	ldi	r30, 0x86	; 134
     f08:	f7 e0       	ldi	r31, 0x07	; 7
     f0a:	95 c2       	rjmp	.+1322   	; 0x1436 <__prologue_saves__>
     f0c:	4c 01       	movw	r8, r24
     f0e:	2b 01       	movw	r4, r22
     f10:	5a 01       	movw	r10, r20
     f12:	fc 01       	movw	r30, r24
     f14:	17 82       	std	Z+7, r1	; 0x07
     f16:	16 82       	std	Z+6, r1	; 0x06
     f18:	83 81       	ldd	r24, Z+3	; 0x03
     f1a:	81 fd       	sbrc	r24, 1
     f1c:	03 c0       	rjmp	.+6      	; 0xf24 <vfprintf+0x22>
     f1e:	6f ef       	ldi	r22, 0xFF	; 255
     f20:	7f ef       	ldi	r23, 0xFF	; 255
     f22:	be c1       	rjmp	.+892    	; 0x12a0 <vfprintf+0x39e>
     f24:	1e 01       	movw	r2, r28
     f26:	08 94       	sec
     f28:	21 1c       	adc	r2, r1
     f2a:	31 1c       	adc	r3, r1
     f2c:	9f e3       	ldi	r25, 0x3F	; 63
     f2e:	69 2e       	mov	r6, r25
     f30:	f4 01       	movw	r30, r8
     f32:	33 81       	ldd	r19, Z+3	; 0x03
     f34:	f2 01       	movw	r30, r4
     f36:	33 fd       	sbrc	r19, 3
     f38:	85 91       	lpm	r24, Z+
     f3a:	33 ff       	sbrs	r19, 3
     f3c:	81 91       	ld	r24, Z+
     f3e:	2f 01       	movw	r4, r30
     f40:	88 23       	and	r24, r24
     f42:	09 f4       	brne	.+2      	; 0xf46 <vfprintf+0x44>
     f44:	aa c1       	rjmp	.+852    	; 0x129a <vfprintf+0x398>
     f46:	85 32       	cpi	r24, 0x25	; 37
     f48:	39 f4       	brne	.+14     	; 0xf58 <vfprintf+0x56>
     f4a:	33 fd       	sbrc	r19, 3
     f4c:	85 91       	lpm	r24, Z+
     f4e:	33 ff       	sbrs	r19, 3
     f50:	81 91       	ld	r24, Z+
     f52:	2f 01       	movw	r4, r30
     f54:	85 32       	cpi	r24, 0x25	; 37
     f56:	21 f4       	brne	.+8      	; 0xf60 <vfprintf+0x5e>
     f58:	90 e0       	ldi	r25, 0x00	; 0
     f5a:	b4 01       	movw	r22, r8
     f5c:	bb d1       	rcall	.+886    	; 0x12d4 <fputc>
     f5e:	e8 cf       	rjmp	.-48     	; 0xf30 <vfprintf+0x2e>
     f60:	98 2f       	mov	r25, r24
     f62:	ff 24       	eor	r15, r15
     f64:	ee 24       	eor	r14, r14
     f66:	77 24       	eor	r7, r7
     f68:	ff e1       	ldi	r31, 0x1F	; 31
     f6a:	ff 15       	cp	r31, r15
     f6c:	d0 f0       	brcs	.+52     	; 0xfa2 <vfprintf+0xa0>
     f6e:	9b 32       	cpi	r25, 0x2B	; 43
     f70:	69 f0       	breq	.+26     	; 0xf8c <vfprintf+0x8a>
     f72:	9c 32       	cpi	r25, 0x2C	; 44
     f74:	28 f4       	brcc	.+10     	; 0xf80 <vfprintf+0x7e>
     f76:	90 32       	cpi	r25, 0x20	; 32
     f78:	59 f0       	breq	.+22     	; 0xf90 <vfprintf+0x8e>
     f7a:	93 32       	cpi	r25, 0x23	; 35
     f7c:	91 f4       	brne	.+36     	; 0xfa2 <vfprintf+0xa0>
     f7e:	0e c0       	rjmp	.+28     	; 0xf9c <vfprintf+0x9a>
     f80:	9d 32       	cpi	r25, 0x2D	; 45
     f82:	49 f0       	breq	.+18     	; 0xf96 <vfprintf+0x94>
     f84:	90 33       	cpi	r25, 0x30	; 48
     f86:	69 f4       	brne	.+26     	; 0xfa2 <vfprintf+0xa0>
     f88:	41 e0       	ldi	r20, 0x01	; 1
     f8a:	2a c0       	rjmp	.+84     	; 0xfe0 <vfprintf+0xde>
     f8c:	52 e0       	ldi	r21, 0x02	; 2
     f8e:	f5 2a       	or	r15, r21
     f90:	84 e0       	ldi	r24, 0x04	; 4
     f92:	f8 2a       	or	r15, r24
     f94:	2e c0       	rjmp	.+92     	; 0xff2 <vfprintf+0xf0>
     f96:	98 e0       	ldi	r25, 0x08	; 8
     f98:	f9 2a       	or	r15, r25
     f9a:	2b c0       	rjmp	.+86     	; 0xff2 <vfprintf+0xf0>
     f9c:	e0 e1       	ldi	r30, 0x10	; 16
     f9e:	fe 2a       	or	r15, r30
     fa0:	28 c0       	rjmp	.+80     	; 0xff2 <vfprintf+0xf0>
     fa2:	f7 fc       	sbrc	r15, 7
     fa4:	2f c0       	rjmp	.+94     	; 0x1004 <vfprintf+0x102>
     fa6:	29 2f       	mov	r18, r25
     fa8:	20 53       	subi	r18, 0x30	; 48
     faa:	2a 30       	cpi	r18, 0x0A	; 10
     fac:	a0 f4       	brcc	.+40     	; 0xfd6 <vfprintf+0xd4>
     fae:	f6 fe       	sbrs	r15, 6
     fb0:	08 c0       	rjmp	.+16     	; 0xfc2 <vfprintf+0xc0>
     fb2:	87 2d       	mov	r24, r7
     fb4:	90 e0       	ldi	r25, 0x00	; 0
     fb6:	6a e0       	ldi	r22, 0x0A	; 10
     fb8:	70 e0       	ldi	r23, 0x00	; 0
     fba:	18 d2       	rcall	.+1072   	; 0x13ec <__mulhi3>
     fbc:	78 2e       	mov	r7, r24
     fbe:	72 0e       	add	r7, r18
     fc0:	18 c0       	rjmp	.+48     	; 0xff2 <vfprintf+0xf0>
     fc2:	8e 2d       	mov	r24, r14
     fc4:	90 e0       	ldi	r25, 0x00	; 0
     fc6:	6a e0       	ldi	r22, 0x0A	; 10
     fc8:	70 e0       	ldi	r23, 0x00	; 0
     fca:	10 d2       	rcall	.+1056   	; 0x13ec <__mulhi3>
     fcc:	e8 2e       	mov	r14, r24
     fce:	e2 0e       	add	r14, r18
     fd0:	f0 e2       	ldi	r31, 0x20	; 32
     fd2:	ff 2a       	or	r15, r31
     fd4:	0e c0       	rjmp	.+28     	; 0xff2 <vfprintf+0xf0>
     fd6:	9e 32       	cpi	r25, 0x2E	; 46
     fd8:	29 f4       	brne	.+10     	; 0xfe4 <vfprintf+0xe2>
     fda:	f6 fc       	sbrc	r15, 6
     fdc:	5e c1       	rjmp	.+700    	; 0x129a <vfprintf+0x398>
     fde:	40 e4       	ldi	r20, 0x40	; 64
     fe0:	f4 2a       	or	r15, r20
     fe2:	07 c0       	rjmp	.+14     	; 0xff2 <vfprintf+0xf0>
     fe4:	9c 36       	cpi	r25, 0x6C	; 108
     fe6:	19 f4       	brne	.+6      	; 0xfee <vfprintf+0xec>
     fe8:	50 e8       	ldi	r21, 0x80	; 128
     fea:	f5 2a       	or	r15, r21
     fec:	02 c0       	rjmp	.+4      	; 0xff2 <vfprintf+0xf0>
     fee:	98 36       	cpi	r25, 0x68	; 104
     ff0:	49 f4       	brne	.+18     	; 0x1004 <vfprintf+0x102>
     ff2:	f2 01       	movw	r30, r4
     ff4:	33 fd       	sbrc	r19, 3
     ff6:	95 91       	lpm	r25, Z+
     ff8:	33 ff       	sbrs	r19, 3
     ffa:	91 91       	ld	r25, Z+
     ffc:	2f 01       	movw	r4, r30
     ffe:	99 23       	and	r25, r25
    1000:	09 f0       	breq	.+2      	; 0x1004 <vfprintf+0x102>
    1002:	b2 cf       	rjmp	.-156    	; 0xf68 <vfprintf+0x66>
    1004:	89 2f       	mov	r24, r25
    1006:	85 54       	subi	r24, 0x45	; 69
    1008:	83 30       	cpi	r24, 0x03	; 3
    100a:	18 f0       	brcs	.+6      	; 0x1012 <vfprintf+0x110>
    100c:	80 52       	subi	r24, 0x20	; 32
    100e:	83 30       	cpi	r24, 0x03	; 3
    1010:	30 f4       	brcc	.+12     	; 0x101e <vfprintf+0x11c>
    1012:	44 e0       	ldi	r20, 0x04	; 4
    1014:	50 e0       	ldi	r21, 0x00	; 0
    1016:	a4 0e       	add	r10, r20
    1018:	b5 1e       	adc	r11, r21
    101a:	69 82       	std	Y+1, r6	; 0x01
    101c:	0f c0       	rjmp	.+30     	; 0x103c <vfprintf+0x13a>
    101e:	93 36       	cpi	r25, 0x63	; 99
    1020:	31 f0       	breq	.+12     	; 0x102e <vfprintf+0x12c>
    1022:	93 37       	cpi	r25, 0x73	; 115
    1024:	79 f0       	breq	.+30     	; 0x1044 <vfprintf+0x142>
    1026:	93 35       	cpi	r25, 0x53	; 83
    1028:	09 f0       	breq	.+2      	; 0x102c <vfprintf+0x12a>
    102a:	52 c0       	rjmp	.+164    	; 0x10d0 <vfprintf+0x1ce>
    102c:	1f c0       	rjmp	.+62     	; 0x106c <vfprintf+0x16a>
    102e:	f5 01       	movw	r30, r10
    1030:	80 81       	ld	r24, Z
    1032:	89 83       	std	Y+1, r24	; 0x01
    1034:	42 e0       	ldi	r20, 0x02	; 2
    1036:	50 e0       	ldi	r21, 0x00	; 0
    1038:	a4 0e       	add	r10, r20
    103a:	b5 1e       	adc	r11, r21
    103c:	61 01       	movw	r12, r2
    103e:	01 e0       	ldi	r16, 0x01	; 1
    1040:	10 e0       	ldi	r17, 0x00	; 0
    1042:	11 c0       	rjmp	.+34     	; 0x1066 <vfprintf+0x164>
    1044:	f5 01       	movw	r30, r10
    1046:	c0 80       	ld	r12, Z
    1048:	d1 80       	ldd	r13, Z+1	; 0x01
    104a:	f6 fc       	sbrc	r15, 6
    104c:	03 c0       	rjmp	.+6      	; 0x1054 <vfprintf+0x152>
    104e:	6f ef       	ldi	r22, 0xFF	; 255
    1050:	7f ef       	ldi	r23, 0xFF	; 255
    1052:	02 c0       	rjmp	.+4      	; 0x1058 <vfprintf+0x156>
    1054:	67 2d       	mov	r22, r7
    1056:	70 e0       	ldi	r23, 0x00	; 0
    1058:	42 e0       	ldi	r20, 0x02	; 2
    105a:	50 e0       	ldi	r21, 0x00	; 0
    105c:	a4 0e       	add	r10, r20
    105e:	b5 1e       	adc	r11, r21
    1060:	c6 01       	movw	r24, r12
    1062:	2d d1       	rcall	.+602    	; 0x12be <strnlen>
    1064:	8c 01       	movw	r16, r24
    1066:	5f e7       	ldi	r21, 0x7F	; 127
    1068:	f5 22       	and	r15, r21
    106a:	13 c0       	rjmp	.+38     	; 0x1092 <vfprintf+0x190>
    106c:	f5 01       	movw	r30, r10
    106e:	c0 80       	ld	r12, Z
    1070:	d1 80       	ldd	r13, Z+1	; 0x01
    1072:	f6 fc       	sbrc	r15, 6
    1074:	03 c0       	rjmp	.+6      	; 0x107c <vfprintf+0x17a>
    1076:	6f ef       	ldi	r22, 0xFF	; 255
    1078:	7f ef       	ldi	r23, 0xFF	; 255
    107a:	02 c0       	rjmp	.+4      	; 0x1080 <vfprintf+0x17e>
    107c:	67 2d       	mov	r22, r7
    107e:	70 e0       	ldi	r23, 0x00	; 0
    1080:	42 e0       	ldi	r20, 0x02	; 2
    1082:	50 e0       	ldi	r21, 0x00	; 0
    1084:	a4 0e       	add	r10, r20
    1086:	b5 1e       	adc	r11, r21
    1088:	c6 01       	movw	r24, r12
    108a:	0e d1       	rcall	.+540    	; 0x12a8 <strnlen_P>
    108c:	8c 01       	movw	r16, r24
    108e:	50 e8       	ldi	r21, 0x80	; 128
    1090:	f5 2a       	or	r15, r21
    1092:	f3 fe       	sbrs	r15, 3
    1094:	06 c0       	rjmp	.+12     	; 0x10a2 <vfprintf+0x1a0>
    1096:	18 c0       	rjmp	.+48     	; 0x10c8 <vfprintf+0x1c6>
    1098:	80 e2       	ldi	r24, 0x20	; 32
    109a:	90 e0       	ldi	r25, 0x00	; 0
    109c:	b4 01       	movw	r22, r8
    109e:	1a d1       	rcall	.+564    	; 0x12d4 <fputc>
    10a0:	ea 94       	dec	r14
    10a2:	8e 2d       	mov	r24, r14
    10a4:	90 e0       	ldi	r25, 0x00	; 0
    10a6:	08 17       	cp	r16, r24
    10a8:	19 07       	cpc	r17, r25
    10aa:	b0 f3       	brcs	.-20     	; 0x1098 <vfprintf+0x196>
    10ac:	0d c0       	rjmp	.+26     	; 0x10c8 <vfprintf+0x1c6>
    10ae:	f6 01       	movw	r30, r12
    10b0:	f7 fc       	sbrc	r15, 7
    10b2:	85 91       	lpm	r24, Z+
    10b4:	f7 fe       	sbrs	r15, 7
    10b6:	81 91       	ld	r24, Z+
    10b8:	6f 01       	movw	r12, r30
    10ba:	90 e0       	ldi	r25, 0x00	; 0
    10bc:	b4 01       	movw	r22, r8
    10be:	0a d1       	rcall	.+532    	; 0x12d4 <fputc>
    10c0:	e1 10       	cpse	r14, r1
    10c2:	ea 94       	dec	r14
    10c4:	01 50       	subi	r16, 0x01	; 1
    10c6:	10 40       	sbci	r17, 0x00	; 0
    10c8:	01 15       	cp	r16, r1
    10ca:	11 05       	cpc	r17, r1
    10cc:	81 f7       	brne	.-32     	; 0x10ae <vfprintf+0x1ac>
    10ce:	e2 c0       	rjmp	.+452    	; 0x1294 <vfprintf+0x392>
    10d0:	94 36       	cpi	r25, 0x64	; 100
    10d2:	11 f0       	breq	.+4      	; 0x10d8 <vfprintf+0x1d6>
    10d4:	99 36       	cpi	r25, 0x69	; 105
    10d6:	61 f5       	brne	.+88     	; 0x1130 <vfprintf+0x22e>
    10d8:	f7 fe       	sbrs	r15, 7
    10da:	08 c0       	rjmp	.+16     	; 0x10ec <vfprintf+0x1ea>
    10dc:	f5 01       	movw	r30, r10
    10de:	20 81       	ld	r18, Z
    10e0:	31 81       	ldd	r19, Z+1	; 0x01
    10e2:	42 81       	ldd	r20, Z+2	; 0x02
    10e4:	53 81       	ldd	r21, Z+3	; 0x03
    10e6:	84 e0       	ldi	r24, 0x04	; 4
    10e8:	90 e0       	ldi	r25, 0x00	; 0
    10ea:	0a c0       	rjmp	.+20     	; 0x1100 <vfprintf+0x1fe>
    10ec:	f5 01       	movw	r30, r10
    10ee:	80 81       	ld	r24, Z
    10f0:	91 81       	ldd	r25, Z+1	; 0x01
    10f2:	9c 01       	movw	r18, r24
    10f4:	44 27       	eor	r20, r20
    10f6:	37 fd       	sbrc	r19, 7
    10f8:	40 95       	com	r20
    10fa:	54 2f       	mov	r21, r20
    10fc:	82 e0       	ldi	r24, 0x02	; 2
    10fe:	90 e0       	ldi	r25, 0x00	; 0
    1100:	a8 0e       	add	r10, r24
    1102:	b9 1e       	adc	r11, r25
    1104:	9f e6       	ldi	r25, 0x6F	; 111
    1106:	f9 22       	and	r15, r25
    1108:	57 ff       	sbrs	r21, 7
    110a:	09 c0       	rjmp	.+18     	; 0x111e <vfprintf+0x21c>
    110c:	50 95       	com	r21
    110e:	40 95       	com	r20
    1110:	30 95       	com	r19
    1112:	21 95       	neg	r18
    1114:	3f 4f       	sbci	r19, 0xFF	; 255
    1116:	4f 4f       	sbci	r20, 0xFF	; 255
    1118:	5f 4f       	sbci	r21, 0xFF	; 255
    111a:	e0 e8       	ldi	r30, 0x80	; 128
    111c:	fe 2a       	or	r15, r30
    111e:	ca 01       	movw	r24, r20
    1120:	b9 01       	movw	r22, r18
    1122:	a1 01       	movw	r20, r2
    1124:	2a e0       	ldi	r18, 0x0A	; 10
    1126:	30 e0       	ldi	r19, 0x00	; 0
    1128:	01 d1       	rcall	.+514    	; 0x132c <__ultoa_invert>
    112a:	d8 2e       	mov	r13, r24
    112c:	d2 18       	sub	r13, r2
    112e:	3f c0       	rjmp	.+126    	; 0x11ae <vfprintf+0x2ac>
    1130:	95 37       	cpi	r25, 0x75	; 117
    1132:	29 f4       	brne	.+10     	; 0x113e <vfprintf+0x23c>
    1134:	1f 2d       	mov	r17, r15
    1136:	1f 7e       	andi	r17, 0xEF	; 239
    1138:	2a e0       	ldi	r18, 0x0A	; 10
    113a:	30 e0       	ldi	r19, 0x00	; 0
    113c:	1d c0       	rjmp	.+58     	; 0x1178 <vfprintf+0x276>
    113e:	1f 2d       	mov	r17, r15
    1140:	19 7f       	andi	r17, 0xF9	; 249
    1142:	9f 36       	cpi	r25, 0x6F	; 111
    1144:	61 f0       	breq	.+24     	; 0x115e <vfprintf+0x25c>
    1146:	90 37       	cpi	r25, 0x70	; 112
    1148:	20 f4       	brcc	.+8      	; 0x1152 <vfprintf+0x250>
    114a:	98 35       	cpi	r25, 0x58	; 88
    114c:	09 f0       	breq	.+2      	; 0x1150 <vfprintf+0x24e>
    114e:	a5 c0       	rjmp	.+330    	; 0x129a <vfprintf+0x398>
    1150:	0f c0       	rjmp	.+30     	; 0x1170 <vfprintf+0x26e>
    1152:	90 37       	cpi	r25, 0x70	; 112
    1154:	39 f0       	breq	.+14     	; 0x1164 <vfprintf+0x262>
    1156:	98 37       	cpi	r25, 0x78	; 120
    1158:	09 f0       	breq	.+2      	; 0x115c <vfprintf+0x25a>
    115a:	9f c0       	rjmp	.+318    	; 0x129a <vfprintf+0x398>
    115c:	04 c0       	rjmp	.+8      	; 0x1166 <vfprintf+0x264>
    115e:	28 e0       	ldi	r18, 0x08	; 8
    1160:	30 e0       	ldi	r19, 0x00	; 0
    1162:	0a c0       	rjmp	.+20     	; 0x1178 <vfprintf+0x276>
    1164:	10 61       	ori	r17, 0x10	; 16
    1166:	14 fd       	sbrc	r17, 4
    1168:	14 60       	ori	r17, 0x04	; 4
    116a:	20 e1       	ldi	r18, 0x10	; 16
    116c:	30 e0       	ldi	r19, 0x00	; 0
    116e:	04 c0       	rjmp	.+8      	; 0x1178 <vfprintf+0x276>
    1170:	14 fd       	sbrc	r17, 4
    1172:	16 60       	ori	r17, 0x06	; 6
    1174:	20 e1       	ldi	r18, 0x10	; 16
    1176:	32 e0       	ldi	r19, 0x02	; 2
    1178:	17 ff       	sbrs	r17, 7
    117a:	08 c0       	rjmp	.+16     	; 0x118c <vfprintf+0x28a>
    117c:	f5 01       	movw	r30, r10
    117e:	60 81       	ld	r22, Z
    1180:	71 81       	ldd	r23, Z+1	; 0x01
    1182:	82 81       	ldd	r24, Z+2	; 0x02
    1184:	93 81       	ldd	r25, Z+3	; 0x03
    1186:	44 e0       	ldi	r20, 0x04	; 4
    1188:	50 e0       	ldi	r21, 0x00	; 0
    118a:	08 c0       	rjmp	.+16     	; 0x119c <vfprintf+0x29a>
    118c:	f5 01       	movw	r30, r10
    118e:	80 81       	ld	r24, Z
    1190:	91 81       	ldd	r25, Z+1	; 0x01
    1192:	bc 01       	movw	r22, r24
    1194:	80 e0       	ldi	r24, 0x00	; 0
    1196:	90 e0       	ldi	r25, 0x00	; 0
    1198:	42 e0       	ldi	r20, 0x02	; 2
    119a:	50 e0       	ldi	r21, 0x00	; 0
    119c:	a4 0e       	add	r10, r20
    119e:	b5 1e       	adc	r11, r21
    11a0:	a1 01       	movw	r20, r2
    11a2:	c4 d0       	rcall	.+392    	; 0x132c <__ultoa_invert>
    11a4:	d8 2e       	mov	r13, r24
    11a6:	d2 18       	sub	r13, r2
    11a8:	8f e7       	ldi	r24, 0x7F	; 127
    11aa:	f8 2e       	mov	r15, r24
    11ac:	f1 22       	and	r15, r17
    11ae:	f6 fe       	sbrs	r15, 6
    11b0:	0b c0       	rjmp	.+22     	; 0x11c8 <vfprintf+0x2c6>
    11b2:	5e ef       	ldi	r21, 0xFE	; 254
    11b4:	f5 22       	and	r15, r21
    11b6:	d7 14       	cp	r13, r7
    11b8:	38 f4       	brcc	.+14     	; 0x11c8 <vfprintf+0x2c6>
    11ba:	f4 fe       	sbrs	r15, 4
    11bc:	07 c0       	rjmp	.+14     	; 0x11cc <vfprintf+0x2ca>
    11be:	f2 fc       	sbrc	r15, 2
    11c0:	05 c0       	rjmp	.+10     	; 0x11cc <vfprintf+0x2ca>
    11c2:	8f ee       	ldi	r24, 0xEF	; 239
    11c4:	f8 22       	and	r15, r24
    11c6:	02 c0       	rjmp	.+4      	; 0x11cc <vfprintf+0x2ca>
    11c8:	1d 2d       	mov	r17, r13
    11ca:	01 c0       	rjmp	.+2      	; 0x11ce <vfprintf+0x2cc>
    11cc:	17 2d       	mov	r17, r7
    11ce:	f4 fe       	sbrs	r15, 4
    11d0:	0d c0       	rjmp	.+26     	; 0x11ec <vfprintf+0x2ea>
    11d2:	fe 01       	movw	r30, r28
    11d4:	ed 0d       	add	r30, r13
    11d6:	f1 1d       	adc	r31, r1
    11d8:	80 81       	ld	r24, Z
    11da:	80 33       	cpi	r24, 0x30	; 48
    11dc:	19 f4       	brne	.+6      	; 0x11e4 <vfprintf+0x2e2>
    11de:	99 ee       	ldi	r25, 0xE9	; 233
    11e0:	f9 22       	and	r15, r25
    11e2:	08 c0       	rjmp	.+16     	; 0x11f4 <vfprintf+0x2f2>
    11e4:	1f 5f       	subi	r17, 0xFF	; 255
    11e6:	f2 fe       	sbrs	r15, 2
    11e8:	05 c0       	rjmp	.+10     	; 0x11f4 <vfprintf+0x2f2>
    11ea:	03 c0       	rjmp	.+6      	; 0x11f2 <vfprintf+0x2f0>
    11ec:	8f 2d       	mov	r24, r15
    11ee:	86 78       	andi	r24, 0x86	; 134
    11f0:	09 f0       	breq	.+2      	; 0x11f4 <vfprintf+0x2f2>
    11f2:	1f 5f       	subi	r17, 0xFF	; 255
    11f4:	0f 2d       	mov	r16, r15
    11f6:	f3 fc       	sbrc	r15, 3
    11f8:	13 c0       	rjmp	.+38     	; 0x1220 <vfprintf+0x31e>
    11fa:	f0 fe       	sbrs	r15, 0
    11fc:	0e c0       	rjmp	.+28     	; 0x121a <vfprintf+0x318>
    11fe:	1e 15       	cp	r17, r14
    1200:	10 f0       	brcs	.+4      	; 0x1206 <vfprintf+0x304>
    1202:	7d 2c       	mov	r7, r13
    1204:	0a c0       	rjmp	.+20     	; 0x121a <vfprintf+0x318>
    1206:	7d 2c       	mov	r7, r13
    1208:	7e 0c       	add	r7, r14
    120a:	71 1a       	sub	r7, r17
    120c:	1e 2d       	mov	r17, r14
    120e:	05 c0       	rjmp	.+10     	; 0x121a <vfprintf+0x318>
    1210:	80 e2       	ldi	r24, 0x20	; 32
    1212:	90 e0       	ldi	r25, 0x00	; 0
    1214:	b4 01       	movw	r22, r8
    1216:	5e d0       	rcall	.+188    	; 0x12d4 <fputc>
    1218:	1f 5f       	subi	r17, 0xFF	; 255
    121a:	1e 15       	cp	r17, r14
    121c:	c8 f3       	brcs	.-14     	; 0x1210 <vfprintf+0x30e>
    121e:	04 c0       	rjmp	.+8      	; 0x1228 <vfprintf+0x326>
    1220:	1e 15       	cp	r17, r14
    1222:	10 f4       	brcc	.+4      	; 0x1228 <vfprintf+0x326>
    1224:	e1 1a       	sub	r14, r17
    1226:	01 c0       	rjmp	.+2      	; 0x122a <vfprintf+0x328>
    1228:	ee 24       	eor	r14, r14
    122a:	04 ff       	sbrs	r16, 4
    122c:	0e c0       	rjmp	.+28     	; 0x124a <vfprintf+0x348>
    122e:	80 e3       	ldi	r24, 0x30	; 48
    1230:	90 e0       	ldi	r25, 0x00	; 0
    1232:	b4 01       	movw	r22, r8
    1234:	4f d0       	rcall	.+158    	; 0x12d4 <fputc>
    1236:	02 ff       	sbrs	r16, 2
    1238:	1b c0       	rjmp	.+54     	; 0x1270 <vfprintf+0x36e>
    123a:	01 fd       	sbrc	r16, 1
    123c:	03 c0       	rjmp	.+6      	; 0x1244 <vfprintf+0x342>
    123e:	88 e7       	ldi	r24, 0x78	; 120
    1240:	90 e0       	ldi	r25, 0x00	; 0
    1242:	0e c0       	rjmp	.+28     	; 0x1260 <vfprintf+0x35e>
    1244:	88 e5       	ldi	r24, 0x58	; 88
    1246:	90 e0       	ldi	r25, 0x00	; 0
    1248:	0b c0       	rjmp	.+22     	; 0x1260 <vfprintf+0x35e>
    124a:	80 2f       	mov	r24, r16
    124c:	86 78       	andi	r24, 0x86	; 134
    124e:	81 f0       	breq	.+32     	; 0x1270 <vfprintf+0x36e>
    1250:	01 ff       	sbrs	r16, 1
    1252:	02 c0       	rjmp	.+4      	; 0x1258 <vfprintf+0x356>
    1254:	8b e2       	ldi	r24, 0x2B	; 43
    1256:	01 c0       	rjmp	.+2      	; 0x125a <vfprintf+0x358>
    1258:	80 e2       	ldi	r24, 0x20	; 32
    125a:	f7 fc       	sbrc	r15, 7
    125c:	8d e2       	ldi	r24, 0x2D	; 45
    125e:	90 e0       	ldi	r25, 0x00	; 0
    1260:	b4 01       	movw	r22, r8
    1262:	38 d0       	rcall	.+112    	; 0x12d4 <fputc>
    1264:	05 c0       	rjmp	.+10     	; 0x1270 <vfprintf+0x36e>
    1266:	80 e3       	ldi	r24, 0x30	; 48
    1268:	90 e0       	ldi	r25, 0x00	; 0
    126a:	b4 01       	movw	r22, r8
    126c:	33 d0       	rcall	.+102    	; 0x12d4 <fputc>
    126e:	7a 94       	dec	r7
    1270:	d7 14       	cp	r13, r7
    1272:	c8 f3       	brcs	.-14     	; 0x1266 <vfprintf+0x364>
    1274:	da 94       	dec	r13
    1276:	f1 01       	movw	r30, r2
    1278:	ed 0d       	add	r30, r13
    127a:	f1 1d       	adc	r31, r1
    127c:	80 81       	ld	r24, Z
    127e:	90 e0       	ldi	r25, 0x00	; 0
    1280:	b4 01       	movw	r22, r8
    1282:	28 d0       	rcall	.+80     	; 0x12d4 <fputc>
    1284:	dd 20       	and	r13, r13
    1286:	b1 f7       	brne	.-20     	; 0x1274 <vfprintf+0x372>
    1288:	05 c0       	rjmp	.+10     	; 0x1294 <vfprintf+0x392>
    128a:	80 e2       	ldi	r24, 0x20	; 32
    128c:	90 e0       	ldi	r25, 0x00	; 0
    128e:	b4 01       	movw	r22, r8
    1290:	21 d0       	rcall	.+66     	; 0x12d4 <fputc>
    1292:	ea 94       	dec	r14
    1294:	ee 20       	and	r14, r14
    1296:	c9 f7       	brne	.-14     	; 0x128a <vfprintf+0x388>
    1298:	4b ce       	rjmp	.-874    	; 0xf30 <vfprintf+0x2e>
    129a:	f4 01       	movw	r30, r8
    129c:	66 81       	ldd	r22, Z+6	; 0x06
    129e:	77 81       	ldd	r23, Z+7	; 0x07
    12a0:	cb 01       	movw	r24, r22
    12a2:	2b 96       	adiw	r28, 0x0b	; 11
    12a4:	e2 e1       	ldi	r30, 0x12	; 18
    12a6:	e3 c0       	rjmp	.+454    	; 0x146e <__epilogue_restores__>

000012a8 <strnlen_P>:
    12a8:	fc 01       	movw	r30, r24
    12aa:	05 90       	lpm	r0, Z+
    12ac:	61 50       	subi	r22, 0x01	; 1
    12ae:	70 40       	sbci	r23, 0x00	; 0
    12b0:	01 10       	cpse	r0, r1
    12b2:	d8 f7       	brcc	.-10     	; 0x12aa <strnlen_P+0x2>
    12b4:	80 95       	com	r24
    12b6:	90 95       	com	r25
    12b8:	8e 0f       	add	r24, r30
    12ba:	9f 1f       	adc	r25, r31
    12bc:	08 95       	ret

000012be <strnlen>:
    12be:	fc 01       	movw	r30, r24
    12c0:	61 50       	subi	r22, 0x01	; 1
    12c2:	70 40       	sbci	r23, 0x00	; 0
    12c4:	01 90       	ld	r0, Z+
    12c6:	01 10       	cpse	r0, r1
    12c8:	d8 f7       	brcc	.-10     	; 0x12c0 <strnlen+0x2>
    12ca:	80 95       	com	r24
    12cc:	90 95       	com	r25
    12ce:	8e 0f       	add	r24, r30
    12d0:	9f 1f       	adc	r25, r31
    12d2:	08 95       	ret

000012d4 <fputc>:
    12d4:	0f 93       	push	r16
    12d6:	1f 93       	push	r17
    12d8:	cf 93       	push	r28
    12da:	df 93       	push	r29
    12dc:	8c 01       	movw	r16, r24
    12de:	eb 01       	movw	r28, r22
    12e0:	8b 81       	ldd	r24, Y+3	; 0x03
    12e2:	81 ff       	sbrs	r24, 1
    12e4:	1b c0       	rjmp	.+54     	; 0x131c <fputc+0x48>
    12e6:	82 ff       	sbrs	r24, 2
    12e8:	0d c0       	rjmp	.+26     	; 0x1304 <fputc+0x30>
    12ea:	2e 81       	ldd	r18, Y+6	; 0x06
    12ec:	3f 81       	ldd	r19, Y+7	; 0x07
    12ee:	8c 81       	ldd	r24, Y+4	; 0x04
    12f0:	9d 81       	ldd	r25, Y+5	; 0x05
    12f2:	28 17       	cp	r18, r24
    12f4:	39 07       	cpc	r19, r25
    12f6:	64 f4       	brge	.+24     	; 0x1310 <fputc+0x3c>
    12f8:	e8 81       	ld	r30, Y
    12fa:	f9 81       	ldd	r31, Y+1	; 0x01
    12fc:	01 93       	st	Z+, r16
    12fe:	f9 83       	std	Y+1, r31	; 0x01
    1300:	e8 83       	st	Y, r30
    1302:	06 c0       	rjmp	.+12     	; 0x1310 <fputc+0x3c>
    1304:	e8 85       	ldd	r30, Y+8	; 0x08
    1306:	f9 85       	ldd	r31, Y+9	; 0x09
    1308:	80 2f       	mov	r24, r16
    130a:	09 95       	icall
    130c:	89 2b       	or	r24, r25
    130e:	31 f4       	brne	.+12     	; 0x131c <fputc+0x48>
    1310:	8e 81       	ldd	r24, Y+6	; 0x06
    1312:	9f 81       	ldd	r25, Y+7	; 0x07
    1314:	01 96       	adiw	r24, 0x01	; 1
    1316:	9f 83       	std	Y+7, r25	; 0x07
    1318:	8e 83       	std	Y+6, r24	; 0x06
    131a:	02 c0       	rjmp	.+4      	; 0x1320 <fputc+0x4c>
    131c:	0f ef       	ldi	r16, 0xFF	; 255
    131e:	1f ef       	ldi	r17, 0xFF	; 255
    1320:	c8 01       	movw	r24, r16
    1322:	df 91       	pop	r29
    1324:	cf 91       	pop	r28
    1326:	1f 91       	pop	r17
    1328:	0f 91       	pop	r16
    132a:	08 95       	ret

0000132c <__ultoa_invert>:
    132c:	fa 01       	movw	r30, r20
    132e:	aa 27       	eor	r26, r26
    1330:	28 30       	cpi	r18, 0x08	; 8
    1332:	61 f1       	breq	.+88     	; 0x138c <__ultoa_invert+0x60>
    1334:	20 31       	cpi	r18, 0x10	; 16
    1336:	91 f1       	breq	.+100    	; 0x139c <__ultoa_invert+0x70>
    1338:	e8 94       	clt
    133a:	6f 93       	push	r22
    133c:	6e 7f       	andi	r22, 0xFE	; 254
    133e:	6e 5f       	subi	r22, 0xFE	; 254
    1340:	7f 4f       	sbci	r23, 0xFF	; 255
    1342:	8f 4f       	sbci	r24, 0xFF	; 255
    1344:	9f 4f       	sbci	r25, 0xFF	; 255
    1346:	af 4f       	sbci	r26, 0xFF	; 255
    1348:	b1 e0       	ldi	r27, 0x01	; 1
    134a:	40 d0       	rcall	.+128    	; 0x13cc <__ultoa_invert+0xa0>
    134c:	b4 e0       	ldi	r27, 0x04	; 4
    134e:	3e d0       	rcall	.+124    	; 0x13cc <__ultoa_invert+0xa0>
    1350:	67 0f       	add	r22, r23
    1352:	78 1f       	adc	r23, r24
    1354:	89 1f       	adc	r24, r25
    1356:	9a 1f       	adc	r25, r26
    1358:	a1 1d       	adc	r26, r1
    135a:	68 0f       	add	r22, r24
    135c:	79 1f       	adc	r23, r25
    135e:	8a 1f       	adc	r24, r26
    1360:	91 1d       	adc	r25, r1
    1362:	a1 1d       	adc	r26, r1
    1364:	6a 0f       	add	r22, r26
    1366:	71 1d       	adc	r23, r1
    1368:	81 1d       	adc	r24, r1
    136a:	91 1d       	adc	r25, r1
    136c:	a1 1d       	adc	r26, r1
    136e:	22 d0       	rcall	.+68     	; 0x13b4 <__ultoa_invert+0x88>
    1370:	09 f4       	brne	.+2      	; 0x1374 <__ultoa_invert+0x48>
    1372:	68 94       	set
    1374:	3f 91       	pop	r19
    1376:	06 2e       	mov	r0, r22
    1378:	00 0c       	add	r0, r0
    137a:	30 19       	sub	r19, r0
    137c:	00 0c       	add	r0, r0
    137e:	00 0c       	add	r0, r0
    1380:	30 19       	sub	r19, r0
    1382:	30 5d       	subi	r19, 0xD0	; 208
    1384:	31 93       	st	Z+, r19
    1386:	ce f6       	brtc	.-78     	; 0x133a <__ultoa_invert+0xe>
    1388:	cf 01       	movw	r24, r30
    138a:	08 95       	ret
    138c:	46 2f       	mov	r20, r22
    138e:	47 70       	andi	r20, 0x07	; 7
    1390:	40 5d       	subi	r20, 0xD0	; 208
    1392:	41 93       	st	Z+, r20
    1394:	b3 e0       	ldi	r27, 0x03	; 3
    1396:	0f d0       	rcall	.+30     	; 0x13b6 <__ultoa_invert+0x8a>
    1398:	c9 f7       	brne	.-14     	; 0x138c <__ultoa_invert+0x60>
    139a:	f6 cf       	rjmp	.-20     	; 0x1388 <__ultoa_invert+0x5c>
    139c:	46 2f       	mov	r20, r22
    139e:	4f 70       	andi	r20, 0x0F	; 15
    13a0:	40 5d       	subi	r20, 0xD0	; 208
    13a2:	4a 33       	cpi	r20, 0x3A	; 58
    13a4:	18 f0       	brcs	.+6      	; 0x13ac <__ultoa_invert+0x80>
    13a6:	49 5d       	subi	r20, 0xD9	; 217
    13a8:	31 fd       	sbrc	r19, 1
    13aa:	40 52       	subi	r20, 0x20	; 32
    13ac:	41 93       	st	Z+, r20
    13ae:	02 d0       	rcall	.+4      	; 0x13b4 <__ultoa_invert+0x88>
    13b0:	a9 f7       	brne	.-22     	; 0x139c <__ultoa_invert+0x70>
    13b2:	ea cf       	rjmp	.-44     	; 0x1388 <__ultoa_invert+0x5c>
    13b4:	b4 e0       	ldi	r27, 0x04	; 4
    13b6:	a6 95       	lsr	r26
    13b8:	97 95       	ror	r25
    13ba:	87 95       	ror	r24
    13bc:	77 95       	ror	r23
    13be:	67 95       	ror	r22
    13c0:	ba 95       	dec	r27
    13c2:	c9 f7       	brne	.-14     	; 0x13b6 <__ultoa_invert+0x8a>
    13c4:	00 97       	sbiw	r24, 0x00	; 0
    13c6:	61 05       	cpc	r22, r1
    13c8:	71 05       	cpc	r23, r1
    13ca:	08 95       	ret
    13cc:	9b 01       	movw	r18, r22
    13ce:	ac 01       	movw	r20, r24
    13d0:	0a 2e       	mov	r0, r26
    13d2:	06 94       	lsr	r0
    13d4:	57 95       	ror	r21
    13d6:	47 95       	ror	r20
    13d8:	37 95       	ror	r19
    13da:	27 95       	ror	r18
    13dc:	ba 95       	dec	r27
    13de:	c9 f7       	brne	.-14     	; 0x13d2 <__ultoa_invert+0xa6>
    13e0:	62 0f       	add	r22, r18
    13e2:	73 1f       	adc	r23, r19
    13e4:	84 1f       	adc	r24, r20
    13e6:	95 1f       	adc	r25, r21
    13e8:	a0 1d       	adc	r26, r0
    13ea:	08 95       	ret

000013ec <__mulhi3>:
    13ec:	55 27       	eor	r21, r21
    13ee:	00 24       	eor	r0, r0

000013f0 <__mulhi3_loop>:
    13f0:	80 ff       	sbrs	r24, 0
    13f2:	02 c0       	rjmp	.+4      	; 0x13f8 <__mulhi3_skip1>
    13f4:	06 0e       	add	r0, r22
    13f6:	57 1f       	adc	r21, r23

000013f8 <__mulhi3_skip1>:
    13f8:	66 0f       	add	r22, r22
    13fa:	77 1f       	adc	r23, r23
    13fc:	61 15       	cp	r22, r1
    13fe:	71 05       	cpc	r23, r1
    1400:	21 f0       	breq	.+8      	; 0x140a <__mulhi3_exit>
    1402:	96 95       	lsr	r25
    1404:	87 95       	ror	r24
    1406:	00 97       	sbiw	r24, 0x00	; 0
    1408:	99 f7       	brne	.-26     	; 0x13f0 <__mulhi3_loop>

0000140a <__mulhi3_exit>:
    140a:	95 2f       	mov	r25, r21
    140c:	80 2d       	mov	r24, r0
    140e:	08 95       	ret

00001410 <__divmodhi4>:
    1410:	97 fb       	bst	r25, 7
    1412:	09 2e       	mov	r0, r25
    1414:	07 26       	eor	r0, r23
    1416:	0a d0       	rcall	.+20     	; 0x142c <__divmodhi4_neg1>
    1418:	77 fd       	sbrc	r23, 7
    141a:	04 d0       	rcall	.+8      	; 0x1424 <__divmodhi4_neg2>
    141c:	43 d0       	rcall	.+134    	; 0x14a4 <__udivmodhi4>
    141e:	06 d0       	rcall	.+12     	; 0x142c <__divmodhi4_neg1>
    1420:	00 20       	and	r0, r0
    1422:	1a f4       	brpl	.+6      	; 0x142a <__divmodhi4_exit>

00001424 <__divmodhi4_neg2>:
    1424:	70 95       	com	r23
    1426:	61 95       	neg	r22
    1428:	7f 4f       	sbci	r23, 0xFF	; 255

0000142a <__divmodhi4_exit>:
    142a:	08 95       	ret

0000142c <__divmodhi4_neg1>:
    142c:	f6 f7       	brtc	.-4      	; 0x142a <__divmodhi4_exit>
    142e:	90 95       	com	r25
    1430:	81 95       	neg	r24
    1432:	9f 4f       	sbci	r25, 0xFF	; 255
    1434:	08 95       	ret

00001436 <__prologue_saves__>:
    1436:	2f 92       	push	r2
    1438:	3f 92       	push	r3
    143a:	4f 92       	push	r4
    143c:	5f 92       	push	r5
    143e:	6f 92       	push	r6
    1440:	7f 92       	push	r7
    1442:	8f 92       	push	r8
    1444:	9f 92       	push	r9
    1446:	af 92       	push	r10
    1448:	bf 92       	push	r11
    144a:	cf 92       	push	r12
    144c:	df 92       	push	r13
    144e:	ef 92       	push	r14
    1450:	ff 92       	push	r15
    1452:	0f 93       	push	r16
    1454:	1f 93       	push	r17
    1456:	cf 93       	push	r28
    1458:	df 93       	push	r29
    145a:	cd b7       	in	r28, 0x3d	; 61
    145c:	de b7       	in	r29, 0x3e	; 62
    145e:	ca 1b       	sub	r28, r26
    1460:	db 0b       	sbc	r29, r27
    1462:	0f b6       	in	r0, 0x3f	; 63
    1464:	f8 94       	cli
    1466:	de bf       	out	0x3e, r29	; 62
    1468:	0f be       	out	0x3f, r0	; 63
    146a:	cd bf       	out	0x3d, r28	; 61
    146c:	09 94       	ijmp

0000146e <__epilogue_restores__>:
    146e:	2a 88       	ldd	r2, Y+18	; 0x12
    1470:	39 88       	ldd	r3, Y+17	; 0x11
    1472:	48 88       	ldd	r4, Y+16	; 0x10
    1474:	5f 84       	ldd	r5, Y+15	; 0x0f
    1476:	6e 84       	ldd	r6, Y+14	; 0x0e
    1478:	7d 84       	ldd	r7, Y+13	; 0x0d
    147a:	8c 84       	ldd	r8, Y+12	; 0x0c
    147c:	9b 84       	ldd	r9, Y+11	; 0x0b
    147e:	aa 84       	ldd	r10, Y+10	; 0x0a
    1480:	b9 84       	ldd	r11, Y+9	; 0x09
    1482:	c8 84       	ldd	r12, Y+8	; 0x08
    1484:	df 80       	ldd	r13, Y+7	; 0x07
    1486:	ee 80       	ldd	r14, Y+6	; 0x06
    1488:	fd 80       	ldd	r15, Y+5	; 0x05
    148a:	0c 81       	ldd	r16, Y+4	; 0x04
    148c:	1b 81       	ldd	r17, Y+3	; 0x03
    148e:	aa 81       	ldd	r26, Y+2	; 0x02
    1490:	b9 81       	ldd	r27, Y+1	; 0x01
    1492:	ce 0f       	add	r28, r30
    1494:	d1 1d       	adc	r29, r1
    1496:	0f b6       	in	r0, 0x3f	; 63
    1498:	f8 94       	cli
    149a:	de bf       	out	0x3e, r29	; 62
    149c:	0f be       	out	0x3f, r0	; 63
    149e:	cd bf       	out	0x3d, r28	; 61
    14a0:	ed 01       	movw	r28, r26
    14a2:	08 95       	ret

000014a4 <__udivmodhi4>:
    14a4:	aa 1b       	sub	r26, r26
    14a6:	bb 1b       	sub	r27, r27
    14a8:	51 e1       	ldi	r21, 0x11	; 17
    14aa:	07 c0       	rjmp	.+14     	; 0x14ba <__udivmodhi4_ep>

000014ac <__udivmodhi4_loop>:
    14ac:	aa 1f       	adc	r26, r26
    14ae:	bb 1f       	adc	r27, r27
    14b0:	a6 17       	cp	r26, r22
    14b2:	b7 07       	cpc	r27, r23
    14b4:	10 f0       	brcs	.+4      	; 0x14ba <__udivmodhi4_ep>
    14b6:	a6 1b       	sub	r26, r22
    14b8:	b7 0b       	sbc	r27, r23

000014ba <__udivmodhi4_ep>:
    14ba:	88 1f       	adc	r24, r24
    14bc:	99 1f       	adc	r25, r25
    14be:	5a 95       	dec	r21
    14c0:	a9 f7       	brne	.-22     	; 0x14ac <__udivmodhi4_loop>
    14c2:	80 95       	com	r24
    14c4:	90 95       	com	r25
    14c6:	bc 01       	movw	r22, r24
    14c8:	cd 01       	movw	r24, r26
    14ca:	08 95       	ret

000014cc <_exit>:
    14cc:	f8 94       	cli

000014ce <__stop_program>:
    14ce:	ff cf       	rjmp	.-2      	; 0x14ce <__stop_program>
